
obj/kern/kernel:     file format elf32-i386


Disassembly of section .text:

00100000 <_start-0xc>:
.long MULTIBOOT_HEADER_FLAGS
.long CHECKSUM

.globl		start,_start
start: _start:
	movw	$0x1234,0x472			# warm boot BIOS flag
  100000:	02 b0 ad 1b 03 00    	add    0x31bad(%eax),%dh
  100006:	00 00                	add    %al,(%eax)
  100008:	fb                   	sti    
  100009:	4f                   	dec    %edi
  10000a:	52                   	push   %edx
  10000b:	e4 66                	in     $0x66,%al

0010000c <_start>:
  10000c:	66 c7 05 72 04 00 00 	movw   $0x1234,0x472
  100013:	34 12 

	# Clear the frame pointer register (EBP)
	# so that once we get into debugging C code,
	# stack backtraces will be terminated properly.
	movl	$0x0,%ebp			# nuke frame pointer
  100015:	bd 00 00 00 00       	mov    $0x0,%ebp

	# Leave a few words on the stack for the user trap frame
	movl	$(cpu_boot+4096-SIZEOF_STRUCT_TRAPFRAME),%esp
  10001a:	bc b4 bf 10 00       	mov    $0x10bfb4,%esp

	# now to C code
	call	init
  10001f:	e8 6f 00 00 00       	call   100093 <init>

00100024 <spin>:

	# Should never get here, but in case we do, just spin.
spin:	jmp	spin
  100024:	eb fe                	jmp    100024 <spin>
  100026:	90                   	nop
  100027:	90                   	nop

00100028 <cpu_cur>:
#define cpu_disabled(c)		0

// Find the CPU struct representing the current CPU.
// It always resides at the bottom of the page containing the CPU's stack.
static inline cpu *
cpu_cur() {
  100028:	55                   	push   %ebp
  100029:	89 e5                	mov    %esp,%ebp
  10002b:	83 ec 28             	sub    $0x28,%esp

static gcc_inline uint32_t
read_esp(void)
{
        uint32_t esp;
        __asm __volatile("movl %%esp,%0" : "=rm" (esp));
  10002e:	89 65 f4             	mov    %esp,-0xc(%ebp)
        return esp;
  100031:	8b 45 f4             	mov    -0xc(%ebp),%eax
	cpu *c = (cpu*)ROUNDDOWN(read_esp(), PAGESIZE);
  100034:	89 45 f0             	mov    %eax,-0x10(%ebp)
  100037:	8b 45 f0             	mov    -0x10(%ebp),%eax
  10003a:	25 00 f0 ff ff       	and    $0xfffff000,%eax
  10003f:	89 45 ec             	mov    %eax,-0x14(%ebp)
	assert(c->magic == CPU_MAGIC);
  100042:	8b 45 ec             	mov    -0x14(%ebp),%eax
  100045:	8b 80 b8 00 00 00    	mov    0xb8(%eax),%eax
  10004b:	3d 32 54 76 98       	cmp    $0x98765432,%eax
  100050:	74 24                	je     100076 <cpu_cur+0x4e>
  100052:	c7 44 24 0c e0 82 10 	movl   $0x1082e0,0xc(%esp)
  100059:	00 
  10005a:	c7 44 24 08 f6 82 10 	movl   $0x1082f6,0x8(%esp)
  100061:	00 
  100062:	c7 44 24 04 5c 00 00 	movl   $0x5c,0x4(%esp)
  100069:	00 
  10006a:	c7 04 24 0b 83 10 00 	movl   $0x10830b,(%esp)
  100071:	e8 42 04 00 00       	call   1004b8 <debug_panic>
	return c;
  100076:	8b 45 ec             	mov    -0x14(%ebp),%eax
}
  100079:	c9                   	leave  
  10007a:	c3                   	ret    

0010007b <cpu_onboot>:

// Returns true if we're running on the bootstrap CPU.
static inline int
cpu_onboot() {
  10007b:	55                   	push   %ebp
  10007c:	89 e5                	mov    %esp,%ebp
  10007e:	83 ec 08             	sub    $0x8,%esp
	return cpu_cur() == &cpu_boot;
  100081:	e8 a2 ff ff ff       	call   100028 <cpu_cur>
  100086:	3d 00 b0 10 00       	cmp    $0x10b000,%eax
  10008b:	0f 94 c0             	sete   %al
  10008e:	0f b6 c0             	movzbl %al,%eax
}
  100091:	c9                   	leave  
  100092:	c3                   	ret    

00100093 <init>:
// Called first from entry.S on the bootstrap processor,
// and later from boot/bootother.S on all other processors.
// As a rule, "init" functions in PIOS are called once on EACH processor.
void
init(void)
{
  100093:	55                   	push   %ebp
  100094:	89 e5                	mov    %esp,%ebp
  100096:	53                   	push   %ebx
  100097:	83 ec 14             	sub    $0x14,%esp
	extern char start[], edata[], end[];

	// Before anything else, complete the ELF loading process.
	// Clear all uninitialized global data (BSS) in our program,
	// ensuring that all static/global variables start out zero.
	if (cpu_onboot())
  10009a:	e8 dc ff ff ff       	call   10007b <cpu_onboot>
  10009f:	85 c0                	test   %eax,%eax
  1000a1:	74 28                	je     1000cb <init+0x38>
		memset(edata, 0, end - edata);
  1000a3:	ba 08 20 12 00       	mov    $0x122008,%edx
  1000a8:	b8 16 84 11 00       	mov    $0x118416,%eax
  1000ad:	89 d1                	mov    %edx,%ecx
  1000af:	29 c1                	sub    %eax,%ecx
  1000b1:	89 c8                	mov    %ecx,%eax
  1000b3:	89 44 24 08          	mov    %eax,0x8(%esp)
  1000b7:	c7 44 24 04 00 00 00 	movl   $0x0,0x4(%esp)
  1000be:	00 
  1000bf:	c7 04 24 16 84 11 00 	movl   $0x118416,(%esp)
  1000c6:	e8 99 7d 00 00       	call   107e64 <memset>

	// Initialize the console.
	// Can't call cprintf until after we do this!
	cons_init();
  1000cb:	e8 f9 02 00 00       	call   1003c9 <cons_init>

	// Initialize and load the bootstrap CPU's GDT, TSS, and IDT.
	cpu_init();
  1000d0:	e8 94 11 00 00       	call   101269 <cpu_init>
	trap_init();
  1000d5:	e8 22 20 00 00       	call   1020fc <trap_init>

	// Physical memory detection/initialization.
	// Can't call mem_alloc until after we do this!
	mem_init();
  1000da:	e8 80 08 00 00       	call   10095f <mem_init>

	// Lab 2: check spinlock implementation
	if (cpu_onboot())
  1000df:	e8 97 ff ff ff       	call   10007b <cpu_onboot>
  1000e4:	85 c0                	test   %eax,%eax
  1000e6:	74 05                	je     1000ed <init+0x5a>
		spinlock_check();
  1000e8:	e8 e2 2d 00 00       	call   102ecf <spinlock_check>

	// Initialize the paged virtual memory system.
	pmap_init();
  1000ed:	e8 1a 45 00 00       	call   10460c <pmap_init>

	// Find and start other processors in a multiprocessor system
	mp_init();		// Find info about processors in system
  1000f2:	e8 4f 2a 00 00       	call   102b46 <mp_init>
	pic_init();		// setup the legacy PIC (mainly to disable it)
  1000f7:	e8 6c 6c 00 00       	call   106d68 <pic_init>
	ioapic_init();		// prepare to handle external device interrupts
  1000fc:	e8 9c 72 00 00       	call   10739d <ioapic_init>
	lapic_init();		// setup this CPU's local APIC
  100101:	e8 47 6f 00 00       	call   10704d <lapic_init>

	cpu_bootothers();	// Get other processors started
  100106:	e8 47 13 00 00       	call   101452 <cpu_bootothers>
	cprintf("CPU %d (%s) has booted\n", cpu_cur()->id,
		cpu_onboot() ? "BP" : "AP");
  10010b:	e8 6b ff ff ff       	call   10007b <cpu_onboot>
	pic_init();		// setup the legacy PIC (mainly to disable it)
	ioapic_init();		// prepare to handle external device interrupts
	lapic_init();		// setup this CPU's local APIC

	cpu_bootothers();	// Get other processors started
	cprintf("CPU %d (%s) has booted\n", cpu_cur()->id,
  100110:	85 c0                	test   %eax,%eax
  100112:	74 07                	je     10011b <init+0x88>
  100114:	bb 18 83 10 00       	mov    $0x108318,%ebx
  100119:	eb 05                	jmp    100120 <init+0x8d>
  10011b:	bb 1b 83 10 00       	mov    $0x10831b,%ebx
  100120:	e8 03 ff ff ff       	call   100028 <cpu_cur>
  100125:	0f b6 80 ac 00 00 00 	movzbl 0xac(%eax),%eax
  10012c:	0f b6 c0             	movzbl %al,%eax
  10012f:	89 5c 24 08          	mov    %ebx,0x8(%esp)
  100133:	89 44 24 04          	mov    %eax,0x4(%esp)
  100137:	c7 04 24 1e 83 10 00 	movl   $0x10831e,(%esp)
  10013e:	e8 3a 7b 00 00       	call   107c7d <cprintf>
		cpu_onboot() ? "BP" : "AP");

	proc_init();
  100143:	e8 45 33 00 00       	call   10348d <proc_init>

	if(cpu_cur()->id == 0) {
  100148:	e8 db fe ff ff       	call   100028 <cpu_cur>
  10014d:	0f b6 80 ac 00 00 00 	movzbl 0xac(%eax),%eax
  100154:	84 c0                	test   %al,%al
  100156:	0f 85 93 00 00 00    	jne    1001ef <init+0x15c>
		// Initialize the process management code.
		proc_root = proc_alloc(NULL, 0);
  10015c:	c7 44 24 04 00 00 00 	movl   $0x0,0x4(%esp)
  100163:	00 
  100164:	c7 04 24 00 00 00 00 	movl   $0x0,(%esp)
  10016b:	e8 61 33 00 00       	call   1034d1 <proc_alloc>
  100170:	a3 f0 f3 11 00       	mov    %eax,0x11f3f0
		user_stack[sizeof(user_stack)-1] = 0;
  100175:	c6 05 ff 9f 11 00 00 	movb   $0x0,0x119fff
		user_stack[sizeof(user_stack)-2] = 0;
  10017c:	c6 05 fe 9f 11 00 00 	movb   $0x0,0x119ffe
		user_stack[sizeof(user_stack)-3] = 0;
  100183:	c6 05 fd 9f 11 00 00 	movb   $0x0,0x119ffd
		user_stack[sizeof(user_stack)-4] = 0;
  10018a:	c6 05 fc 9f 11 00 00 	movb   $0x0,0x119ffc
		proc_root->sv.tf.esp = ((uintptr_t)user_stack)+sizeof(user_stack)-4;
  100191:	a1 f0 f3 11 00       	mov    0x11f3f0,%eax
  100196:	ba 00 90 11 00       	mov    $0x119000,%edx
  10019b:	81 c2 fc 0f 00 00    	add    $0xffc,%edx
  1001a1:	89 90 94 04 00 00    	mov    %edx,0x494(%eax)
		proc_root->sv.tf.ss = CPU_GDT_UDATA | 0x3;
  1001a7:	a1 f0 f3 11 00       	mov    0x11f3f0,%eax
  1001ac:	66 c7 80 98 04 00 00 	movw   $0x23,0x498(%eax)
  1001b3:	23 00 
		proc_root->sv.tf.eflags = (FL_IOPL_MASK & FL_IOPL_3);
  1001b5:	a1 f0 f3 11 00       	mov    0x11f3f0,%eax
  1001ba:	c7 80 90 04 00 00 00 	movl   $0x3000,0x490(%eax)
  1001c1:	30 00 00 
		proc_root->sv.tf.eip = (uintptr_t)(&user);
  1001c4:	a1 f0 f3 11 00       	mov    0x11f3f0,%eax
  1001c9:	ba f9 01 10 00       	mov    $0x1001f9,%edx
  1001ce:	89 90 88 04 00 00    	mov    %edx,0x488(%eax)
		proc_root->sv.tf.cs = CPU_GDT_UCODE | 0x3;
  1001d4:	a1 f0 f3 11 00       	mov    0x11f3f0,%eax
  1001d9:	66 c7 80 8c 04 00 00 	movw   $0x1b,0x48c(%eax)
  1001e0:	1b 00 
		proc_ready(proc_root);
  1001e2:	a1 f0 f3 11 00       	mov    0x11f3f0,%eax
  1001e7:	89 04 24             	mov    %eax,(%esp)
  1001ea:	e8 b6 34 00 00       	call   1036a5 <proc_ready>
	}

	lapic_eoi();
  1001ef:	e8 f1 6f 00 00       	call   1071e5 <lapic_eoi>
	proc_sched();
  1001f4:	e8 3c 36 00 00       	call   103835 <proc_sched>

001001f9 <user>:
// This is the first function that gets run in user mode (ring 3).
// It acts as PIOS's "root process",
// of which all other processes are descendants.
void
user()
{
  1001f9:	55                   	push   %ebp
  1001fa:	89 e5                	mov    %esp,%ebp
  1001fc:	83 ec 28             	sub    $0x28,%esp
	assert(0 == 0);
	cprintf("in user()\n");
  1001ff:	c7 04 24 36 83 10 00 	movl   $0x108336,(%esp)
  100206:	e8 72 7a 00 00       	call   107c7d <cprintf>

static gcc_inline uint32_t
read_esp(void)
{
        uint32_t esp;
        __asm __volatile("movl %%esp,%0" : "=rm" (esp));
  10020b:	89 65 f0             	mov    %esp,-0x10(%ebp)
        return esp;
  10020e:	8b 45 f0             	mov    -0x10(%ebp),%eax
	assert(read_esp() > (uint32_t) &user_stack[0]);
  100211:	89 c2                	mov    %eax,%edx
  100213:	b8 00 90 11 00       	mov    $0x119000,%eax
  100218:	39 c2                	cmp    %eax,%edx
  10021a:	77 24                	ja     100240 <user+0x47>
  10021c:	c7 44 24 0c 44 83 10 	movl   $0x108344,0xc(%esp)
  100223:	00 
  100224:	c7 44 24 08 f6 82 10 	movl   $0x1082f6,0x8(%esp)
  10022b:	00 
  10022c:	c7 44 24 04 7c 00 00 	movl   $0x7c,0x4(%esp)
  100233:	00 
  100234:	c7 04 24 6b 83 10 00 	movl   $0x10836b,(%esp)
  10023b:	e8 78 02 00 00       	call   1004b8 <debug_panic>

static gcc_inline uint32_t
read_esp(void)
{
        uint32_t esp;
        __asm __volatile("movl %%esp,%0" : "=rm" (esp));
  100240:	89 65 f4             	mov    %esp,-0xc(%ebp)
        return esp;
  100243:	8b 45 f4             	mov    -0xc(%ebp),%eax
	assert(read_esp() < (uint32_t) &user_stack[sizeof(user_stack)]);
  100246:	89 c2                	mov    %eax,%edx
  100248:	b8 00 a0 11 00       	mov    $0x11a000,%eax
  10024d:	39 c2                	cmp    %eax,%edx
  10024f:	72 24                	jb     100275 <user+0x7c>
  100251:	c7 44 24 0c 78 83 10 	movl   $0x108378,0xc(%esp)
  100258:	00 
  100259:	c7 44 24 08 f6 82 10 	movl   $0x1082f6,0x8(%esp)
  100260:	00 
  100261:	c7 44 24 04 7d 00 00 	movl   $0x7d,0x4(%esp)
  100268:	00 
  100269:	c7 04 24 6b 83 10 00 	movl   $0x10836b,(%esp)
  100270:	e8 43 02 00 00       	call   1004b8 <debug_panic>


	done();
  100275:	e8 00 00 00 00       	call   10027a <done>

0010027a <done>:
// it just puts the processor into an infinite loop.
// We make this a function so that we can set a breakpoints on it.
// Our grade scripts use this breakpoint to know when to stop QEMU.
void gcc_noreturn
done()
{
  10027a:	55                   	push   %ebp
  10027b:	89 e5                	mov    %esp,%ebp
	while (1)
		;	// just spin
  10027d:	eb fe                	jmp    10027d <done+0x3>
  10027f:	90                   	nop

00100280 <cpu_cur>:
#define cpu_disabled(c)		0

// Find the CPU struct representing the current CPU.
// It always resides at the bottom of the page containing the CPU's stack.
static inline cpu *
cpu_cur() {
  100280:	55                   	push   %ebp
  100281:	89 e5                	mov    %esp,%ebp
  100283:	83 ec 28             	sub    $0x28,%esp

static gcc_inline uint32_t
read_esp(void)
{
        uint32_t esp;
        __asm __volatile("movl %%esp,%0" : "=rm" (esp));
  100286:	89 65 f4             	mov    %esp,-0xc(%ebp)
        return esp;
  100289:	8b 45 f4             	mov    -0xc(%ebp),%eax
	cpu *c = (cpu*)ROUNDDOWN(read_esp(), PAGESIZE);
  10028c:	89 45 f0             	mov    %eax,-0x10(%ebp)
  10028f:	8b 45 f0             	mov    -0x10(%ebp),%eax
  100292:	25 00 f0 ff ff       	and    $0xfffff000,%eax
  100297:	89 45 ec             	mov    %eax,-0x14(%ebp)
	assert(c->magic == CPU_MAGIC);
  10029a:	8b 45 ec             	mov    -0x14(%ebp),%eax
  10029d:	8b 80 b8 00 00 00    	mov    0xb8(%eax),%eax
  1002a3:	3d 32 54 76 98       	cmp    $0x98765432,%eax
  1002a8:	74 24                	je     1002ce <cpu_cur+0x4e>
  1002aa:	c7 44 24 0c b0 83 10 	movl   $0x1083b0,0xc(%esp)
  1002b1:	00 
  1002b2:	c7 44 24 08 c6 83 10 	movl   $0x1083c6,0x8(%esp)
  1002b9:	00 
  1002ba:	c7 44 24 04 5c 00 00 	movl   $0x5c,0x4(%esp)
  1002c1:	00 
  1002c2:	c7 04 24 db 83 10 00 	movl   $0x1083db,(%esp)
  1002c9:	e8 ea 01 00 00       	call   1004b8 <debug_panic>
	return c;
  1002ce:	8b 45 ec             	mov    -0x14(%ebp),%eax
}
  1002d1:	c9                   	leave  
  1002d2:	c3                   	ret    

001002d3 <cpu_onboot>:

// Returns true if we're running on the bootstrap CPU.
static inline int
cpu_onboot() {
  1002d3:	55                   	push   %ebp
  1002d4:	89 e5                	mov    %esp,%ebp
  1002d6:	83 ec 08             	sub    $0x8,%esp
	return cpu_cur() == &cpu_boot;
  1002d9:	e8 a2 ff ff ff       	call   100280 <cpu_cur>
  1002de:	3d 00 b0 10 00       	cmp    $0x10b000,%eax
  1002e3:	0f 94 c0             	sete   %al
  1002e6:	0f b6 c0             	movzbl %al,%eax
}
  1002e9:	c9                   	leave  
  1002ea:	c3                   	ret    

001002eb <cons_intr>:

// called by device interrupt routines to feed input characters
// into the circular console input buffer.
void
cons_intr(int (*proc)(void))
{
  1002eb:	55                   	push   %ebp
  1002ec:	89 e5                	mov    %esp,%ebp
  1002ee:	83 ec 28             	sub    $0x28,%esp
	int c;

	spinlock_acquire(&cons_lock);
  1002f1:	c7 04 24 a0 ec 11 00 	movl   $0x11eca0,(%esp)
  1002f8:	e8 82 2a 00 00       	call   102d7f <spinlock_acquire>
	while ((c = (*proc)()) != -1) {
  1002fd:	eb 35                	jmp    100334 <cons_intr+0x49>
		if (c == 0)
  1002ff:	83 7d f4 00          	cmpl   $0x0,-0xc(%ebp)
  100303:	74 2e                	je     100333 <cons_intr+0x48>
			continue;
		cons.buf[cons.wpos++] = c;
  100305:	a1 04 a2 11 00       	mov    0x11a204,%eax
  10030a:	8b 55 f4             	mov    -0xc(%ebp),%edx
  10030d:	88 90 00 a0 11 00    	mov    %dl,0x11a000(%eax)
  100313:	83 c0 01             	add    $0x1,%eax
  100316:	a3 04 a2 11 00       	mov    %eax,0x11a204
		if (cons.wpos == CONSBUFSIZE)
  10031b:	a1 04 a2 11 00       	mov    0x11a204,%eax
  100320:	3d 00 02 00 00       	cmp    $0x200,%eax
  100325:	75 0d                	jne    100334 <cons_intr+0x49>
			cons.wpos = 0;
  100327:	c7 05 04 a2 11 00 00 	movl   $0x0,0x11a204
  10032e:	00 00 00 
  100331:	eb 01                	jmp    100334 <cons_intr+0x49>
	int c;

	spinlock_acquire(&cons_lock);
	while ((c = (*proc)()) != -1) {
		if (c == 0)
			continue;
  100333:	90                   	nop
cons_intr(int (*proc)(void))
{
	int c;

	spinlock_acquire(&cons_lock);
	while ((c = (*proc)()) != -1) {
  100334:	8b 45 08             	mov    0x8(%ebp),%eax
  100337:	ff d0                	call   *%eax
  100339:	89 45 f4             	mov    %eax,-0xc(%ebp)
  10033c:	83 7d f4 ff          	cmpl   $0xffffffff,-0xc(%ebp)
  100340:	75 bd                	jne    1002ff <cons_intr+0x14>
			continue;
		cons.buf[cons.wpos++] = c;
		if (cons.wpos == CONSBUFSIZE)
			cons.wpos = 0;
	}
	spinlock_release(&cons_lock);
  100342:	c7 04 24 a0 ec 11 00 	movl   $0x11eca0,(%esp)
  100349:	e8 a6 2a 00 00       	call   102df4 <spinlock_release>

}
  10034e:	c9                   	leave  
  10034f:	c3                   	ret    

00100350 <cons_getc>:

// return the next input character from the console, or 0 if none waiting
int
cons_getc(void)
{
  100350:	55                   	push   %ebp
  100351:	89 e5                	mov    %esp,%ebp
  100353:	83 ec 18             	sub    $0x18,%esp
	int c;

	// poll for any pending input characters,
	// so that this function works even when interrupts are disabled
	// (e.g., when called from the kernel monitor).
	serial_intr();
  100356:	e8 bd 68 00 00       	call   106c18 <serial_intr>
	kbd_intr();
  10035b:	e8 12 68 00 00       	call   106b72 <kbd_intr>

	// grab the next character from the input buffer.
	if (cons.rpos != cons.wpos) {
  100360:	8b 15 00 a2 11 00    	mov    0x11a200,%edx
  100366:	a1 04 a2 11 00       	mov    0x11a204,%eax
  10036b:	39 c2                	cmp    %eax,%edx
  10036d:	74 35                	je     1003a4 <cons_getc+0x54>
		c = cons.buf[cons.rpos++];
  10036f:	a1 00 a2 11 00       	mov    0x11a200,%eax
  100374:	0f b6 90 00 a0 11 00 	movzbl 0x11a000(%eax),%edx
  10037b:	0f b6 d2             	movzbl %dl,%edx
  10037e:	89 55 f4             	mov    %edx,-0xc(%ebp)
  100381:	83 c0 01             	add    $0x1,%eax
  100384:	a3 00 a2 11 00       	mov    %eax,0x11a200
		if (cons.rpos == CONSBUFSIZE)
  100389:	a1 00 a2 11 00       	mov    0x11a200,%eax
  10038e:	3d 00 02 00 00       	cmp    $0x200,%eax
  100393:	75 0a                	jne    10039f <cons_getc+0x4f>
			cons.rpos = 0;
  100395:	c7 05 00 a2 11 00 00 	movl   $0x0,0x11a200
  10039c:	00 00 00 
		return c;
  10039f:	8b 45 f4             	mov    -0xc(%ebp),%eax
  1003a2:	eb 05                	jmp    1003a9 <cons_getc+0x59>
	}
	return 0;
  1003a4:	b8 00 00 00 00       	mov    $0x0,%eax
}
  1003a9:	c9                   	leave  
  1003aa:	c3                   	ret    

001003ab <cons_putc>:

// output a character to the console
static void
cons_putc(int c)
{
  1003ab:	55                   	push   %ebp
  1003ac:	89 e5                	mov    %esp,%ebp
  1003ae:	83 ec 18             	sub    $0x18,%esp
	serial_putc(c);
  1003b1:	8b 45 08             	mov    0x8(%ebp),%eax
  1003b4:	89 04 24             	mov    %eax,(%esp)
  1003b7:	e8 79 68 00 00       	call   106c35 <serial_putc>
	video_putc(c);
  1003bc:	8b 45 08             	mov    0x8(%ebp),%eax
  1003bf:	89 04 24             	mov    %eax,(%esp)
  1003c2:	e8 09 64 00 00       	call   1067d0 <video_putc>
}
  1003c7:	c9                   	leave  
  1003c8:	c3                   	ret    

001003c9 <cons_init>:

// initialize the console devices
void
cons_init(void)
{
  1003c9:	55                   	push   %ebp
  1003ca:	89 e5                	mov    %esp,%ebp
  1003cc:	83 ec 18             	sub    $0x18,%esp
	if (!cpu_onboot())	// only do once, on the boot CPU
  1003cf:	e8 ff fe ff ff       	call   1002d3 <cpu_onboot>
  1003d4:	85 c0                	test   %eax,%eax
  1003d6:	74 52                	je     10042a <cons_init+0x61>
		return;

	spinlock_init(&cons_lock);
  1003d8:	c7 44 24 08 6a 00 00 	movl   $0x6a,0x8(%esp)
  1003df:	00 
  1003e0:	c7 44 24 04 e8 83 10 	movl   $0x1083e8,0x4(%esp)
  1003e7:	00 
  1003e8:	c7 04 24 a0 ec 11 00 	movl   $0x11eca0,(%esp)
  1003ef:	e8 54 29 00 00       	call   102d48 <spinlock_init_>
	video_init();
  1003f4:	e8 0b 63 00 00       	call   106704 <video_init>
	kbd_init();
  1003f9:	e8 88 67 00 00       	call   106b86 <kbd_init>
	serial_init();
  1003fe:	e8 97 68 00 00       	call   106c9a <serial_init>

	if (!serial_exists)
  100403:	a1 00 20 12 00       	mov    0x122000,%eax
  100408:	85 c0                	test   %eax,%eax
  10040a:	75 1f                	jne    10042b <cons_init+0x62>
		warn("Serial port does not exist!\n");
  10040c:	c7 44 24 08 f4 83 10 	movl   $0x1083f4,0x8(%esp)
  100413:	00 
  100414:	c7 44 24 04 70 00 00 	movl   $0x70,0x4(%esp)
  10041b:	00 
  10041c:	c7 04 24 e8 83 10 00 	movl   $0x1083e8,(%esp)
  100423:	e8 4f 01 00 00       	call   100577 <debug_warn>
  100428:	eb 01                	jmp    10042b <cons_init+0x62>
// initialize the console devices
void
cons_init(void)
{
	if (!cpu_onboot())	// only do once, on the boot CPU
		return;
  10042a:	90                   	nop
	kbd_init();
	serial_init();

	if (!serial_exists)
		warn("Serial port does not exist!\n");
}
  10042b:	c9                   	leave  
  10042c:	c3                   	ret    

0010042d <cputs>:


// `High'-level console I/O.  Used by readline and cprintf.
void
cputs(const char *str)
{
  10042d:	55                   	push   %ebp
  10042e:	89 e5                	mov    %esp,%ebp
  100430:	53                   	push   %ebx
  100431:	83 ec 24             	sub    $0x24,%esp

static gcc_inline uint16_t
read_cs(void)
{
        uint16_t cs;
        __asm __volatile("movw %%cs,%0" : "=rm" (cs));
  100434:	8c 4d f2             	mov    %cs,-0xe(%ebp)
        return cs;
  100437:	0f b7 45 f2          	movzwl -0xe(%ebp),%eax
	if (read_cs() & 3)
  10043b:	0f b7 c0             	movzwl %ax,%eax
  10043e:	83 e0 03             	and    $0x3,%eax
  100441:	85 c0                	test   %eax,%eax
  100443:	74 14                	je     100459 <cputs+0x2c>
  100445:	8b 45 08             	mov    0x8(%ebp),%eax
  100448:	89 45 f4             	mov    %eax,-0xc(%ebp)
	// 
	// The last clause tells the assembler that this can
	// potentially change the condition codes and arbitrary
	// memory locations.

	asm volatile("int %0" :
  10044b:	b8 00 00 00 00       	mov    $0x0,%eax
  100450:	8b 55 f4             	mov    -0xc(%ebp),%edx
  100453:	89 d3                	mov    %edx,%ebx
  100455:	cd 30                	int    $0x30
		return sys_cputs(str);	// use syscall from user mode
  100457:	eb 57                	jmp    1004b0 <cputs+0x83>

	// Hold the console spinlock while printing the entire string,
	// so that the output of different cputs calls won't get mixed.
	// Implement ad hoc recursive locking for debugging convenience.
	bool already = spinlock_holding(&cons_lock);
  100459:	c7 04 24 a0 ec 11 00 	movl   $0x11eca0,(%esp)
  100460:	e8 fd 29 00 00       	call   102e62 <spinlock_holding>
  100465:	89 45 ec             	mov    %eax,-0x14(%ebp)
	if (!already)
  100468:	83 7d ec 00          	cmpl   $0x0,-0x14(%ebp)
  10046c:	75 25                	jne    100493 <cputs+0x66>
		spinlock_acquire(&cons_lock);
  10046e:	c7 04 24 a0 ec 11 00 	movl   $0x11eca0,(%esp)
  100475:	e8 05 29 00 00       	call   102d7f <spinlock_acquire>

	char ch;
	while (*str)
  10047a:	eb 18                	jmp    100494 <cputs+0x67>
		cons_putc(*str++);
  10047c:	8b 45 08             	mov    0x8(%ebp),%eax
  10047f:	0f b6 00             	movzbl (%eax),%eax
  100482:	0f be c0             	movsbl %al,%eax
  100485:	83 45 08 01          	addl   $0x1,0x8(%ebp)
  100489:	89 04 24             	mov    %eax,(%esp)
  10048c:	e8 1a ff ff ff       	call   1003ab <cons_putc>
  100491:	eb 01                	jmp    100494 <cputs+0x67>
	bool already = spinlock_holding(&cons_lock);
	if (!already)
		spinlock_acquire(&cons_lock);

	char ch;
	while (*str)
  100493:	90                   	nop
  100494:	8b 45 08             	mov    0x8(%ebp),%eax
  100497:	0f b6 00             	movzbl (%eax),%eax
  10049a:	84 c0                	test   %al,%al
  10049c:	75 de                	jne    10047c <cputs+0x4f>
		cons_putc(*str++);

	if (!already)
  10049e:	83 7d ec 00          	cmpl   $0x0,-0x14(%ebp)
  1004a2:	75 0c                	jne    1004b0 <cputs+0x83>
		spinlock_release(&cons_lock);
  1004a4:	c7 04 24 a0 ec 11 00 	movl   $0x11eca0,(%esp)
  1004ab:	e8 44 29 00 00       	call   102df4 <spinlock_release>
}
  1004b0:	83 c4 24             	add    $0x24,%esp
  1004b3:	5b                   	pop    %ebx
  1004b4:	5d                   	pop    %ebp
  1004b5:	c3                   	ret    
  1004b6:	90                   	nop
  1004b7:	90                   	nop

001004b8 <debug_panic>:

// Panic is called on unresolvable fatal errors.
// It prints "panic: mesg", and then enters the kernel monitor.
void
debug_panic(const char *file, int line, const char *fmt,...)
{
  1004b8:	55                   	push   %ebp
  1004b9:	89 e5                	mov    %esp,%ebp
  1004bb:	83 ec 58             	sub    $0x58,%esp

static gcc_inline uint16_t
read_cs(void)
{
        uint16_t cs;
        __asm __volatile("movw %%cs,%0" : "=rm" (cs));
  1004be:	8c 4d f2             	mov    %cs,-0xe(%ebp)
        return cs;
  1004c1:	0f b7 45 f2          	movzwl -0xe(%ebp),%eax
	va_list ap;
	int i;

	// Avoid infinite recursion if we're panicking from kernel mode.
	if ((read_cs() & 3) == 0) {
  1004c5:	0f b7 c0             	movzwl %ax,%eax
  1004c8:	83 e0 03             	and    $0x3,%eax
  1004cb:	85 c0                	test   %eax,%eax
  1004cd:	75 15                	jne    1004e4 <debug_panic+0x2c>
		if (panicstr)
  1004cf:	a1 08 a2 11 00       	mov    0x11a208,%eax
  1004d4:	85 c0                	test   %eax,%eax
  1004d6:	0f 85 95 00 00 00    	jne    100571 <debug_panic+0xb9>
			goto dead;
		panicstr = fmt;
  1004dc:	8b 45 10             	mov    0x10(%ebp),%eax
  1004df:	a3 08 a2 11 00       	mov    %eax,0x11a208
	}

	// First print the requested message
	va_start(ap, fmt);
  1004e4:	8d 45 10             	lea    0x10(%ebp),%eax
  1004e7:	83 c0 04             	add    $0x4,%eax
  1004ea:	89 45 e8             	mov    %eax,-0x18(%ebp)
	cprintf("kernel panic at %s:%d: ", file, line);
  1004ed:	8b 45 0c             	mov    0xc(%ebp),%eax
  1004f0:	89 44 24 08          	mov    %eax,0x8(%esp)
  1004f4:	8b 45 08             	mov    0x8(%ebp),%eax
  1004f7:	89 44 24 04          	mov    %eax,0x4(%esp)
  1004fb:	c7 04 24 11 84 10 00 	movl   $0x108411,(%esp)
  100502:	e8 76 77 00 00       	call   107c7d <cprintf>
	vcprintf(fmt, ap);
  100507:	8b 45 10             	mov    0x10(%ebp),%eax
  10050a:	8b 55 e8             	mov    -0x18(%ebp),%edx
  10050d:	89 54 24 04          	mov    %edx,0x4(%esp)
  100511:	89 04 24             	mov    %eax,(%esp)
  100514:	e8 fb 76 00 00       	call   107c14 <vcprintf>
	cprintf("\n");
  100519:	c7 04 24 29 84 10 00 	movl   $0x108429,(%esp)
  100520:	e8 58 77 00 00       	call   107c7d <cprintf>

static gcc_inline uint32_t
read_ebp(void)
{
        uint32_t ebp;
        __asm __volatile("movl %%ebp,%0" : "=rm" (ebp));
  100525:	89 6d f4             	mov    %ebp,-0xc(%ebp)
        return ebp;
  100528:	8b 45 f4             	mov    -0xc(%ebp),%eax
	va_end(ap);

	// Then print a backtrace of the kernel call chain
	uint32_t eips[DEBUG_TRACEFRAMES];
	debug_trace(read_ebp(), eips);
  10052b:	8d 55 c0             	lea    -0x40(%ebp),%edx
  10052e:	89 54 24 04          	mov    %edx,0x4(%esp)
  100532:	89 04 24             	mov    %eax,(%esp)
  100535:	e8 86 00 00 00       	call   1005c0 <debug_trace>
	for (i = 0; i < DEBUG_TRACEFRAMES && eips[i] != 0; i++)
  10053a:	c7 45 ec 00 00 00 00 	movl   $0x0,-0x14(%ebp)
  100541:	eb 1b                	jmp    10055e <debug_panic+0xa6>
		cprintf("  from %08x\n", eips[i]);
  100543:	8b 45 ec             	mov    -0x14(%ebp),%eax
  100546:	8b 44 85 c0          	mov    -0x40(%ebp,%eax,4),%eax
  10054a:	89 44 24 04          	mov    %eax,0x4(%esp)
  10054e:	c7 04 24 2b 84 10 00 	movl   $0x10842b,(%esp)
  100555:	e8 23 77 00 00       	call   107c7d <cprintf>
	va_end(ap);

	// Then print a backtrace of the kernel call chain
	uint32_t eips[DEBUG_TRACEFRAMES];
	debug_trace(read_ebp(), eips);
	for (i = 0; i < DEBUG_TRACEFRAMES && eips[i] != 0; i++)
  10055a:	83 45 ec 01          	addl   $0x1,-0x14(%ebp)
  10055e:	83 7d ec 09          	cmpl   $0x9,-0x14(%ebp)
  100562:	7f 0e                	jg     100572 <debug_panic+0xba>
  100564:	8b 45 ec             	mov    -0x14(%ebp),%eax
  100567:	8b 44 85 c0          	mov    -0x40(%ebp,%eax,4),%eax
  10056b:	85 c0                	test   %eax,%eax
  10056d:	75 d4                	jne    100543 <debug_panic+0x8b>
  10056f:	eb 01                	jmp    100572 <debug_panic+0xba>
	int i;

	// Avoid infinite recursion if we're panicking from kernel mode.
	if ((read_cs() & 3) == 0) {
		if (panicstr)
			goto dead;
  100571:	90                   	nop
	debug_trace(read_ebp(), eips);
	for (i = 0; i < DEBUG_TRACEFRAMES && eips[i] != 0; i++)
		cprintf("  from %08x\n", eips[i]);

dead:
	done();		// enter infinite loop (see kern/init.c)
  100572:	e8 03 fd ff ff       	call   10027a <done>

00100577 <debug_warn>:
}

/* like panic, but don't */
void
debug_warn(const char *file, int line, const char *fmt,...)
{
  100577:	55                   	push   %ebp
  100578:	89 e5                	mov    %esp,%ebp
  10057a:	83 ec 28             	sub    $0x28,%esp
	va_list ap;

	va_start(ap, fmt);
  10057d:	8d 45 10             	lea    0x10(%ebp),%eax
  100580:	83 c0 04             	add    $0x4,%eax
  100583:	89 45 f4             	mov    %eax,-0xc(%ebp)
	cprintf("kernel warning at %s:%d: ", file, line);
  100586:	8b 45 0c             	mov    0xc(%ebp),%eax
  100589:	89 44 24 08          	mov    %eax,0x8(%esp)
  10058d:	8b 45 08             	mov    0x8(%ebp),%eax
  100590:	89 44 24 04          	mov    %eax,0x4(%esp)
  100594:	c7 04 24 38 84 10 00 	movl   $0x108438,(%esp)
  10059b:	e8 dd 76 00 00       	call   107c7d <cprintf>
	vcprintf(fmt, ap);
  1005a0:	8b 45 10             	mov    0x10(%ebp),%eax
  1005a3:	8b 55 f4             	mov    -0xc(%ebp),%edx
  1005a6:	89 54 24 04          	mov    %edx,0x4(%esp)
  1005aa:	89 04 24             	mov    %eax,(%esp)
  1005ad:	e8 62 76 00 00       	call   107c14 <vcprintf>
	cprintf("\n");
  1005b2:	c7 04 24 29 84 10 00 	movl   $0x108429,(%esp)
  1005b9:	e8 bf 76 00 00       	call   107c7d <cprintf>
	va_end(ap);
}
  1005be:	c9                   	leave  
  1005bf:	c3                   	ret    

001005c0 <debug_trace>:

// Record the current call stack in eips[] by following the %ebp chain.
void gcc_noinline
debug_trace(uint32_t ebp, uint32_t eips[DEBUG_TRACEFRAMES])
{
  1005c0:	55                   	push   %ebp
  1005c1:	89 e5                	mov    %esp,%ebp
  1005c3:	83 ec 10             	sub    $0x10,%esp
	int i = 0;
  1005c6:	c7 45 f8 00 00 00 00 	movl   $0x0,-0x8(%ebp)
	for(; i < DEBUG_TRACEFRAMES && ebp; i++) {
  1005cd:	eb 25                	jmp    1005f4 <debug_trace+0x34>
		uint32_t eip = (*(uint32_t *)(ebp + 4));
  1005cf:	8b 45 08             	mov    0x8(%ebp),%eax
  1005d2:	83 c0 04             	add    $0x4,%eax
  1005d5:	8b 00                	mov    (%eax),%eax
  1005d7:	89 45 fc             	mov    %eax,-0x4(%ebp)
		eips[i] = eip;
  1005da:	8b 45 f8             	mov    -0x8(%ebp),%eax
  1005dd:	c1 e0 02             	shl    $0x2,%eax
  1005e0:	03 45 0c             	add    0xc(%ebp),%eax
  1005e3:	8b 55 fc             	mov    -0x4(%ebp),%edx
  1005e6:	89 10                	mov    %edx,(%eax)
				(*(uint32_t *)(ebp + 8)),
				(*(uint32_t *)(ebp + 12)),
				(*(uint32_t *)(ebp + 16)),
				(*(uint32_t *)(ebp + 20)),
				(*(uint32_t *)(ebp + 24))); */
		ebp = (*(uint32_t *)(ebp));
  1005e8:	8b 45 08             	mov    0x8(%ebp),%eax
  1005eb:	8b 00                	mov    (%eax),%eax
  1005ed:	89 45 08             	mov    %eax,0x8(%ebp)
// Record the current call stack in eips[] by following the %ebp chain.
void gcc_noinline
debug_trace(uint32_t ebp, uint32_t eips[DEBUG_TRACEFRAMES])
{
	int i = 0;
	for(; i < DEBUG_TRACEFRAMES && ebp; i++) {
  1005f0:	83 45 f8 01          	addl   $0x1,-0x8(%ebp)
  1005f4:	83 7d f8 09          	cmpl   $0x9,-0x8(%ebp)
  1005f8:	7f 1b                	jg     100615 <debug_trace+0x55>
  1005fa:	83 7d 08 00          	cmpl   $0x0,0x8(%ebp)
  1005fe:	75 cf                	jne    1005cf <debug_trace+0xf>
				(*(uint32_t *)(ebp + 16)),
				(*(uint32_t *)(ebp + 20)),
				(*(uint32_t *)(ebp + 24))); */
		ebp = (*(uint32_t *)(ebp));
	}
	for(; i < DEBUG_TRACEFRAMES; i++) { eips[i] = 0; }
  100600:	eb 13                	jmp    100615 <debug_trace+0x55>
  100602:	8b 45 f8             	mov    -0x8(%ebp),%eax
  100605:	c1 e0 02             	shl    $0x2,%eax
  100608:	03 45 0c             	add    0xc(%ebp),%eax
  10060b:	c7 00 00 00 00 00    	movl   $0x0,(%eax)
  100611:	83 45 f8 01          	addl   $0x1,-0x8(%ebp)
  100615:	83 7d f8 09          	cmpl   $0x9,-0x8(%ebp)
  100619:	7e e7                	jle    100602 <debug_trace+0x42>
}
  10061b:	c9                   	leave  
  10061c:	c3                   	ret    

0010061d <f3>:


static void gcc_noinline f3(int r, uint32_t *e) { debug_trace(read_ebp(), e); }
  10061d:	55                   	push   %ebp
  10061e:	89 e5                	mov    %esp,%ebp
  100620:	83 ec 18             	sub    $0x18,%esp

static gcc_inline uint32_t
read_ebp(void)
{
        uint32_t ebp;
        __asm __volatile("movl %%ebp,%0" : "=rm" (ebp));
  100623:	89 6d fc             	mov    %ebp,-0x4(%ebp)
        return ebp;
  100626:	8b 45 fc             	mov    -0x4(%ebp),%eax
  100629:	8b 55 0c             	mov    0xc(%ebp),%edx
  10062c:	89 54 24 04          	mov    %edx,0x4(%esp)
  100630:	89 04 24             	mov    %eax,(%esp)
  100633:	e8 88 ff ff ff       	call   1005c0 <debug_trace>
  100638:	c9                   	leave  
  100639:	c3                   	ret    

0010063a <f2>:
static void gcc_noinline f2(int r, uint32_t *e) { r & 2 ? f3(r,e) : f3(r,e); }
  10063a:	55                   	push   %ebp
  10063b:	89 e5                	mov    %esp,%ebp
  10063d:	83 ec 08             	sub    $0x8,%esp
  100640:	8b 45 08             	mov    0x8(%ebp),%eax
  100643:	83 e0 02             	and    $0x2,%eax
  100646:	85 c0                	test   %eax,%eax
  100648:	74 14                	je     10065e <f2+0x24>
  10064a:	8b 45 0c             	mov    0xc(%ebp),%eax
  10064d:	89 44 24 04          	mov    %eax,0x4(%esp)
  100651:	8b 45 08             	mov    0x8(%ebp),%eax
  100654:	89 04 24             	mov    %eax,(%esp)
  100657:	e8 c1 ff ff ff       	call   10061d <f3>
  10065c:	eb 12                	jmp    100670 <f2+0x36>
  10065e:	8b 45 0c             	mov    0xc(%ebp),%eax
  100661:	89 44 24 04          	mov    %eax,0x4(%esp)
  100665:	8b 45 08             	mov    0x8(%ebp),%eax
  100668:	89 04 24             	mov    %eax,(%esp)
  10066b:	e8 ad ff ff ff       	call   10061d <f3>
  100670:	c9                   	leave  
  100671:	c3                   	ret    

00100672 <f1>:
static void gcc_noinline f1(int r, uint32_t *e) { r & 1 ? f2(r,e) : f2(r,e); }
  100672:	55                   	push   %ebp
  100673:	89 e5                	mov    %esp,%ebp
  100675:	83 ec 08             	sub    $0x8,%esp
  100678:	8b 45 08             	mov    0x8(%ebp),%eax
  10067b:	83 e0 01             	and    $0x1,%eax
  10067e:	84 c0                	test   %al,%al
  100680:	74 14                	je     100696 <f1+0x24>
  100682:	8b 45 0c             	mov    0xc(%ebp),%eax
  100685:	89 44 24 04          	mov    %eax,0x4(%esp)
  100689:	8b 45 08             	mov    0x8(%ebp),%eax
  10068c:	89 04 24             	mov    %eax,(%esp)
  10068f:	e8 a6 ff ff ff       	call   10063a <f2>
  100694:	eb 12                	jmp    1006a8 <f1+0x36>
  100696:	8b 45 0c             	mov    0xc(%ebp),%eax
  100699:	89 44 24 04          	mov    %eax,0x4(%esp)
  10069d:	8b 45 08             	mov    0x8(%ebp),%eax
  1006a0:	89 04 24             	mov    %eax,(%esp)
  1006a3:	e8 92 ff ff ff       	call   10063a <f2>
  1006a8:	c9                   	leave  
  1006a9:	c3                   	ret    

001006aa <debug_check>:

// Test the backtrace implementation for correct operation
void
debug_check(void)
{
  1006aa:	55                   	push   %ebp
  1006ab:	89 e5                	mov    %esp,%ebp
  1006ad:	81 ec c8 00 00 00    	sub    $0xc8,%esp
	uint32_t eips[4][DEBUG_TRACEFRAMES];
	int r, i;

	// produce several related backtraces...
	for (i = 0; i < 4; i++)
  1006b3:	c7 45 f4 00 00 00 00 	movl   $0x0,-0xc(%ebp)
  1006ba:	eb 29                	jmp    1006e5 <debug_check+0x3b>
		f1(i, eips[i]);
  1006bc:	8d 8d 50 ff ff ff    	lea    -0xb0(%ebp),%ecx
  1006c2:	8b 55 f4             	mov    -0xc(%ebp),%edx
  1006c5:	89 d0                	mov    %edx,%eax
  1006c7:	c1 e0 02             	shl    $0x2,%eax
  1006ca:	01 d0                	add    %edx,%eax
  1006cc:	c1 e0 03             	shl    $0x3,%eax
  1006cf:	8d 04 01             	lea    (%ecx,%eax,1),%eax
  1006d2:	89 44 24 04          	mov    %eax,0x4(%esp)
  1006d6:	8b 45 f4             	mov    -0xc(%ebp),%eax
  1006d9:	89 04 24             	mov    %eax,(%esp)
  1006dc:	e8 91 ff ff ff       	call   100672 <f1>
{
	uint32_t eips[4][DEBUG_TRACEFRAMES];
	int r, i;

	// produce several related backtraces...
	for (i = 0; i < 4; i++)
  1006e1:	83 45 f4 01          	addl   $0x1,-0xc(%ebp)
  1006e5:	83 7d f4 03          	cmpl   $0x3,-0xc(%ebp)
  1006e9:	7e d1                	jle    1006bc <debug_check+0x12>
		f1(i, eips[i]);

	// ...and make sure they come out correctly.
	for (r = 0; r < 4; r++)
  1006eb:	c7 45 f0 00 00 00 00 	movl   $0x0,-0x10(%ebp)
  1006f2:	e9 bc 00 00 00       	jmp    1007b3 <debug_check+0x109>
		for (i = 0; i < DEBUG_TRACEFRAMES; i++) {
  1006f7:	c7 45 f4 00 00 00 00 	movl   $0x0,-0xc(%ebp)
  1006fe:	e9 a2 00 00 00       	jmp    1007a5 <debug_check+0xfb>
			assert((eips[r][i] != 0) == (i < 5));
  100703:	8b 55 f0             	mov    -0x10(%ebp),%edx
  100706:	8b 4d f4             	mov    -0xc(%ebp),%ecx
  100709:	89 d0                	mov    %edx,%eax
  10070b:	c1 e0 02             	shl    $0x2,%eax
  10070e:	01 d0                	add    %edx,%eax
  100710:	01 c0                	add    %eax,%eax
  100712:	01 c8                	add    %ecx,%eax
  100714:	8b 84 85 50 ff ff ff 	mov    -0xb0(%ebp,%eax,4),%eax
  10071b:	85 c0                	test   %eax,%eax
  10071d:	0f 95 c2             	setne  %dl
  100720:	83 7d f4 04          	cmpl   $0x4,-0xc(%ebp)
  100724:	0f 9e c0             	setle  %al
  100727:	31 d0                	xor    %edx,%eax
  100729:	84 c0                	test   %al,%al
  10072b:	74 24                	je     100751 <debug_check+0xa7>
  10072d:	c7 44 24 0c 52 84 10 	movl   $0x108452,0xc(%esp)
  100734:	00 
  100735:	c7 44 24 08 6f 84 10 	movl   $0x10846f,0x8(%esp)
  10073c:	00 
  10073d:	c7 44 24 04 6f 00 00 	movl   $0x6f,0x4(%esp)
  100744:	00 
  100745:	c7 04 24 84 84 10 00 	movl   $0x108484,(%esp)
  10074c:	e8 67 fd ff ff       	call   1004b8 <debug_panic>
			if (i >= 2)
  100751:	83 7d f4 01          	cmpl   $0x1,-0xc(%ebp)
  100755:	7e 4a                	jle    1007a1 <debug_check+0xf7>
				assert(eips[r][i] == eips[0][i]);
  100757:	8b 55 f0             	mov    -0x10(%ebp),%edx
  10075a:	8b 4d f4             	mov    -0xc(%ebp),%ecx
  10075d:	89 d0                	mov    %edx,%eax
  10075f:	c1 e0 02             	shl    $0x2,%eax
  100762:	01 d0                	add    %edx,%eax
  100764:	01 c0                	add    %eax,%eax
  100766:	01 c8                	add    %ecx,%eax
  100768:	8b 94 85 50 ff ff ff 	mov    -0xb0(%ebp,%eax,4),%edx
  10076f:	8b 45 f4             	mov    -0xc(%ebp),%eax
  100772:	8b 84 85 50 ff ff ff 	mov    -0xb0(%ebp,%eax,4),%eax
  100779:	39 c2                	cmp    %eax,%edx
  10077b:	74 24                	je     1007a1 <debug_check+0xf7>
  10077d:	c7 44 24 0c 91 84 10 	movl   $0x108491,0xc(%esp)
  100784:	00 
  100785:	c7 44 24 08 6f 84 10 	movl   $0x10846f,0x8(%esp)
  10078c:	00 
  10078d:	c7 44 24 04 71 00 00 	movl   $0x71,0x4(%esp)
  100794:	00 
  100795:	c7 04 24 84 84 10 00 	movl   $0x108484,(%esp)
  10079c:	e8 17 fd ff ff       	call   1004b8 <debug_panic>
	for (i = 0; i < 4; i++)
		f1(i, eips[i]);

	// ...and make sure they come out correctly.
	for (r = 0; r < 4; r++)
		for (i = 0; i < DEBUG_TRACEFRAMES; i++) {
  1007a1:	83 45 f4 01          	addl   $0x1,-0xc(%ebp)
  1007a5:	83 7d f4 09          	cmpl   $0x9,-0xc(%ebp)
  1007a9:	0f 8e 54 ff ff ff    	jle    100703 <debug_check+0x59>
	// produce several related backtraces...
	for (i = 0; i < 4; i++)
		f1(i, eips[i]);

	// ...and make sure they come out correctly.
	for (r = 0; r < 4; r++)
  1007af:	83 45 f0 01          	addl   $0x1,-0x10(%ebp)
  1007b3:	83 7d f0 03          	cmpl   $0x3,-0x10(%ebp)
  1007b7:	0f 8e 3a ff ff ff    	jle    1006f7 <debug_check+0x4d>
		for (i = 0; i < DEBUG_TRACEFRAMES; i++) {
			assert((eips[r][i] != 0) == (i < 5));
			if (i >= 2)
				assert(eips[r][i] == eips[0][i]);
		}
	assert(eips[0][0] == eips[1][0]);
  1007bd:	8b 95 50 ff ff ff    	mov    -0xb0(%ebp),%edx
  1007c3:	8b 85 78 ff ff ff    	mov    -0x88(%ebp),%eax
  1007c9:	39 c2                	cmp    %eax,%edx
  1007cb:	74 24                	je     1007f1 <debug_check+0x147>
  1007cd:	c7 44 24 0c aa 84 10 	movl   $0x1084aa,0xc(%esp)
  1007d4:	00 
  1007d5:	c7 44 24 08 6f 84 10 	movl   $0x10846f,0x8(%esp)
  1007dc:	00 
  1007dd:	c7 44 24 04 73 00 00 	movl   $0x73,0x4(%esp)
  1007e4:	00 
  1007e5:	c7 04 24 84 84 10 00 	movl   $0x108484,(%esp)
  1007ec:	e8 c7 fc ff ff       	call   1004b8 <debug_panic>
	assert(eips[2][0] == eips[3][0]);
  1007f1:	8b 55 a0             	mov    -0x60(%ebp),%edx
  1007f4:	8b 45 c8             	mov    -0x38(%ebp),%eax
  1007f7:	39 c2                	cmp    %eax,%edx
  1007f9:	74 24                	je     10081f <debug_check+0x175>
  1007fb:	c7 44 24 0c c3 84 10 	movl   $0x1084c3,0xc(%esp)
  100802:	00 
  100803:	c7 44 24 08 6f 84 10 	movl   $0x10846f,0x8(%esp)
  10080a:	00 
  10080b:	c7 44 24 04 74 00 00 	movl   $0x74,0x4(%esp)
  100812:	00 
  100813:	c7 04 24 84 84 10 00 	movl   $0x108484,(%esp)
  10081a:	e8 99 fc ff ff       	call   1004b8 <debug_panic>
	assert(eips[1][0] != eips[2][0]);
  10081f:	8b 95 78 ff ff ff    	mov    -0x88(%ebp),%edx
  100825:	8b 45 a0             	mov    -0x60(%ebp),%eax
  100828:	39 c2                	cmp    %eax,%edx
  10082a:	75 24                	jne    100850 <debug_check+0x1a6>
  10082c:	c7 44 24 0c dc 84 10 	movl   $0x1084dc,0xc(%esp)
  100833:	00 
  100834:	c7 44 24 08 6f 84 10 	movl   $0x10846f,0x8(%esp)
  10083b:	00 
  10083c:	c7 44 24 04 75 00 00 	movl   $0x75,0x4(%esp)
  100843:	00 
  100844:	c7 04 24 84 84 10 00 	movl   $0x108484,(%esp)
  10084b:	e8 68 fc ff ff       	call   1004b8 <debug_panic>
	assert(eips[0][1] == eips[2][1]);
  100850:	8b 95 54 ff ff ff    	mov    -0xac(%ebp),%edx
  100856:	8b 45 a4             	mov    -0x5c(%ebp),%eax
  100859:	39 c2                	cmp    %eax,%edx
  10085b:	74 24                	je     100881 <debug_check+0x1d7>
  10085d:	c7 44 24 0c f5 84 10 	movl   $0x1084f5,0xc(%esp)
  100864:	00 
  100865:	c7 44 24 08 6f 84 10 	movl   $0x10846f,0x8(%esp)
  10086c:	00 
  10086d:	c7 44 24 04 76 00 00 	movl   $0x76,0x4(%esp)
  100874:	00 
  100875:	c7 04 24 84 84 10 00 	movl   $0x108484,(%esp)
  10087c:	e8 37 fc ff ff       	call   1004b8 <debug_panic>
	assert(eips[1][1] == eips[3][1]);
  100881:	8b 95 7c ff ff ff    	mov    -0x84(%ebp),%edx
  100887:	8b 45 cc             	mov    -0x34(%ebp),%eax
  10088a:	39 c2                	cmp    %eax,%edx
  10088c:	74 24                	je     1008b2 <debug_check+0x208>
  10088e:	c7 44 24 0c 0e 85 10 	movl   $0x10850e,0xc(%esp)
  100895:	00 
  100896:	c7 44 24 08 6f 84 10 	movl   $0x10846f,0x8(%esp)
  10089d:	00 
  10089e:	c7 44 24 04 77 00 00 	movl   $0x77,0x4(%esp)
  1008a5:	00 
  1008a6:	c7 04 24 84 84 10 00 	movl   $0x108484,(%esp)
  1008ad:	e8 06 fc ff ff       	call   1004b8 <debug_panic>
	assert(eips[0][1] != eips[1][1]);
  1008b2:	8b 95 54 ff ff ff    	mov    -0xac(%ebp),%edx
  1008b8:	8b 85 7c ff ff ff    	mov    -0x84(%ebp),%eax
  1008be:	39 c2                	cmp    %eax,%edx
  1008c0:	75 24                	jne    1008e6 <debug_check+0x23c>
  1008c2:	c7 44 24 0c 27 85 10 	movl   $0x108527,0xc(%esp)
  1008c9:	00 
  1008ca:	c7 44 24 08 6f 84 10 	movl   $0x10846f,0x8(%esp)
  1008d1:	00 
  1008d2:	c7 44 24 04 78 00 00 	movl   $0x78,0x4(%esp)
  1008d9:	00 
  1008da:	c7 04 24 84 84 10 00 	movl   $0x108484,(%esp)
  1008e1:	e8 d2 fb ff ff       	call   1004b8 <debug_panic>

	cprintf("debug_check() succeeded!\n");
  1008e6:	c7 04 24 40 85 10 00 	movl   $0x108540,(%esp)
  1008ed:	e8 8b 73 00 00       	call   107c7d <cprintf>
}
  1008f2:	c9                   	leave  
  1008f3:	c3                   	ret    

001008f4 <cpu_cur>:
#define cpu_disabled(c)		0

// Find the CPU struct representing the current CPU.
// It always resides at the bottom of the page containing the CPU's stack.
static inline cpu *
cpu_cur() {
  1008f4:	55                   	push   %ebp
  1008f5:	89 e5                	mov    %esp,%ebp
  1008f7:	83 ec 28             	sub    $0x28,%esp

static gcc_inline uint32_t
read_esp(void)
{
        uint32_t esp;
        __asm __volatile("movl %%esp,%0" : "=rm" (esp));
  1008fa:	89 65 f4             	mov    %esp,-0xc(%ebp)
        return esp;
  1008fd:	8b 45 f4             	mov    -0xc(%ebp),%eax
	cpu *c = (cpu*)ROUNDDOWN(read_esp(), PAGESIZE);
  100900:	89 45 f0             	mov    %eax,-0x10(%ebp)
  100903:	8b 45 f0             	mov    -0x10(%ebp),%eax
  100906:	25 00 f0 ff ff       	and    $0xfffff000,%eax
  10090b:	89 45 ec             	mov    %eax,-0x14(%ebp)
	assert(c->magic == CPU_MAGIC);
  10090e:	8b 45 ec             	mov    -0x14(%ebp),%eax
  100911:	8b 80 b8 00 00 00    	mov    0xb8(%eax),%eax
  100917:	3d 32 54 76 98       	cmp    $0x98765432,%eax
  10091c:	74 24                	je     100942 <cpu_cur+0x4e>
  10091e:	c7 44 24 0c 5c 85 10 	movl   $0x10855c,0xc(%esp)
  100925:	00 
  100926:	c7 44 24 08 72 85 10 	movl   $0x108572,0x8(%esp)
  10092d:	00 
  10092e:	c7 44 24 04 5c 00 00 	movl   $0x5c,0x4(%esp)
  100935:	00 
  100936:	c7 04 24 87 85 10 00 	movl   $0x108587,(%esp)
  10093d:	e8 76 fb ff ff       	call   1004b8 <debug_panic>
	return c;
  100942:	8b 45 ec             	mov    -0x14(%ebp),%eax
}
  100945:	c9                   	leave  
  100946:	c3                   	ret    

00100947 <cpu_onboot>:

// Returns true if we're running on the bootstrap CPU.
static inline int
cpu_onboot() {
  100947:	55                   	push   %ebp
  100948:	89 e5                	mov    %esp,%ebp
  10094a:	83 ec 08             	sub    $0x8,%esp
	return cpu_cur() == &cpu_boot;
  10094d:	e8 a2 ff ff ff       	call   1008f4 <cpu_cur>
  100952:	3d 00 b0 10 00       	cmp    $0x10b000,%eax
  100957:	0f 94 c0             	sete   %al
  10095a:	0f b6 c0             	movzbl %al,%eax
}
  10095d:	c9                   	leave  
  10095e:	c3                   	ret    

0010095f <mem_init>:

void mem_check(void);

void
mem_init(void)
{
  10095f:	55                   	push   %ebp
  100960:	89 e5                	mov    %esp,%ebp
  100962:	83 ec 68             	sub    $0x68,%esp
	if (!cpu_onboot())	// only do once, on the boot CPU
  100965:	e8 dd ff ff ff       	call   100947 <cpu_onboot>
  10096a:	85 c0                	test   %eax,%eax
  10096c:	0f 84 e4 02 00 00    	je     100c56 <mem_init+0x2f7>
		return;

	spinlock_init(&mem_lock);
  100972:	c7 44 24 08 2a 00 00 	movl   $0x2a,0x8(%esp)
  100979:	00 
  10097a:	c7 44 24 04 94 85 10 	movl   $0x108594,0x4(%esp)
  100981:	00 
  100982:	c7 04 24 e0 ec 11 00 	movl   $0x11ece0,(%esp)
  100989:	e8 ba 23 00 00       	call   102d48 <spinlock_init_>
	// is available in the system (in bytes),
	// by reading the PC's BIOS-managed nonvolatile RAM (NVRAM).
	// The NVRAM tells us how many kilobytes there are.
	// Since the count is 16 bits, this gives us up to 64MB of RAM;
	// additional RAM beyond that would have to be detected another way.
	size_t basemem = ROUNDDOWN(nvram_read16(NVRAM_BASELO)*1024, PAGESIZE);
  10098e:	c7 04 24 15 00 00 00 	movl   $0x15,(%esp)
  100995:	e8 d9 65 00 00       	call   106f73 <nvram_read16>
  10099a:	c1 e0 0a             	shl    $0xa,%eax
  10099d:	89 45 b8             	mov    %eax,-0x48(%ebp)
  1009a0:	8b 45 b8             	mov    -0x48(%ebp),%eax
  1009a3:	25 00 f0 ff ff       	and    $0xfffff000,%eax
  1009a8:	89 45 a8             	mov    %eax,-0x58(%ebp)
	size_t extmem = ROUNDDOWN(nvram_read16(NVRAM_EXTLO)*1024, PAGESIZE);
  1009ab:	c7 04 24 17 00 00 00 	movl   $0x17,(%esp)
  1009b2:	e8 bc 65 00 00       	call   106f73 <nvram_read16>
  1009b7:	c1 e0 0a             	shl    $0xa,%eax
  1009ba:	89 45 bc             	mov    %eax,-0x44(%ebp)
  1009bd:	8b 45 bc             	mov    -0x44(%ebp),%eax
  1009c0:	25 00 f0 ff ff       	and    $0xfffff000,%eax
  1009c5:	89 45 ac             	mov    %eax,-0x54(%ebp)

	warn("Assuming we have 1GB of memory!");
  1009c8:	c7 44 24 08 a0 85 10 	movl   $0x1085a0,0x8(%esp)
  1009cf:	00 
  1009d0:	c7 44 24 04 35 00 00 	movl   $0x35,0x4(%esp)
  1009d7:	00 
  1009d8:	c7 04 24 94 85 10 00 	movl   $0x108594,(%esp)
  1009df:	e8 93 fb ff ff       	call   100577 <debug_warn>
	extmem = 1024*1024*1024 - MEM_EXT;	// assume 1GB total memory
  1009e4:	c7 45 ac 00 00 f0 3f 	movl   $0x3ff00000,-0x54(%ebp)

	// The maximum physical address is the top of extended memory.
	mem_max = MEM_EXT + extmem;
  1009eb:	8b 45 ac             	mov    -0x54(%ebp),%eax
  1009ee:	05 00 00 10 00       	add    $0x100000,%eax
  1009f3:	a3 20 ed 11 00       	mov    %eax,0x11ed20

	// Compute the total number of physical pages (including I/O holes)
	mem_npage = mem_max / PAGESIZE;
  1009f8:	a1 20 ed 11 00       	mov    0x11ed20,%eax
  1009fd:	c1 e8 0c             	shr    $0xc,%eax
  100a00:	a3 1c ed 11 00       	mov    %eax,0x11ed1c

	cprintf("Physical memory: %dK available, ", (int)(mem_max/1024));
  100a05:	a1 20 ed 11 00       	mov    0x11ed20,%eax
  100a0a:	c1 e8 0a             	shr    $0xa,%eax
  100a0d:	89 44 24 04          	mov    %eax,0x4(%esp)
  100a11:	c7 04 24 c0 85 10 00 	movl   $0x1085c0,(%esp)
  100a18:	e8 60 72 00 00       	call   107c7d <cprintf>
	cprintf("base = %dK, extended = %dK\n",
		(int)(basemem/1024), (int)(extmem/1024));
  100a1d:	8b 45 ac             	mov    -0x54(%ebp),%eax
  100a20:	c1 e8 0a             	shr    $0xa,%eax

	// Compute the total number of physical pages (including I/O holes)
	mem_npage = mem_max / PAGESIZE;

	cprintf("Physical memory: %dK available, ", (int)(mem_max/1024));
	cprintf("base = %dK, extended = %dK\n",
  100a23:	89 c2                	mov    %eax,%edx
		(int)(basemem/1024), (int)(extmem/1024));
  100a25:	8b 45 a8             	mov    -0x58(%ebp),%eax
  100a28:	c1 e8 0a             	shr    $0xa,%eax

	// Compute the total number of physical pages (including I/O holes)
	mem_npage = mem_max / PAGESIZE;

	cprintf("Physical memory: %dK available, ", (int)(mem_max/1024));
	cprintf("base = %dK, extended = %dK\n",
  100a2b:	89 54 24 08          	mov    %edx,0x8(%esp)
  100a2f:	89 44 24 04          	mov    %eax,0x4(%esp)
  100a33:	c7 04 24 e1 85 10 00 	movl   $0x1085e1,(%esp)
  100a3a:	e8 3e 72 00 00       	call   107c7d <cprintf>
		(int)(basemem/1024), (int)(extmem/1024));

	// Insert code here to:
	// (1)	allocate physical memory for the mem_pageinfo array,
	//	making it big enough to hold mem_npage entries.
	mem_pageinfo = mem_ptr(ROUNDUP(mem_phys(end), PAGESIZE));
  100a3f:	c7 45 c0 00 10 00 00 	movl   $0x1000,-0x40(%ebp)
  100a46:	b8 08 20 12 00       	mov    $0x122008,%eax
  100a4b:	83 e8 01             	sub    $0x1,%eax
  100a4e:	03 45 c0             	add    -0x40(%ebp),%eax
  100a51:	89 45 c4             	mov    %eax,-0x3c(%ebp)
  100a54:	8b 45 c4             	mov    -0x3c(%ebp),%eax
  100a57:	ba 00 00 00 00       	mov    $0x0,%edx
  100a5c:	f7 75 c0             	divl   -0x40(%ebp)
  100a5f:	89 d0                	mov    %edx,%eax
  100a61:	8b 55 c4             	mov    -0x3c(%ebp),%edx
  100a64:	89 d1                	mov    %edx,%ecx
  100a66:	29 c1                	sub    %eax,%ecx
  100a68:	89 c8                	mov    %ecx,%eax
  100a6a:	a3 24 ed 11 00       	mov    %eax,0x11ed24
	cprintf("kernel end %p, pageinfo %p\n", end, mem_pageinfo);
  100a6f:	a1 24 ed 11 00       	mov    0x11ed24,%eax
  100a74:	89 44 24 08          	mov    %eax,0x8(%esp)
  100a78:	c7 44 24 04 08 20 12 	movl   $0x122008,0x4(%esp)
  100a7f:	00 
  100a80:	c7 04 24 fd 85 10 00 	movl   $0x1085fd,(%esp)
  100a87:	e8 f1 71 00 00       	call   107c7d <cprintf>
	cprintf("num pages %d, pagetable takes %d pages\n", mem_npage,
		ROUNDUP(mem_npage*sizeof(pageinfo), PAGESIZE) / PAGESIZE);
  100a8c:	c7 45 c8 00 10 00 00 	movl   $0x1000,-0x38(%ebp)
  100a93:	a1 1c ed 11 00       	mov    0x11ed1c,%eax
  100a98:	c1 e0 03             	shl    $0x3,%eax
  100a9b:	03 45 c8             	add    -0x38(%ebp),%eax
  100a9e:	83 e8 01             	sub    $0x1,%eax
  100aa1:	89 45 cc             	mov    %eax,-0x34(%ebp)
  100aa4:	8b 45 cc             	mov    -0x34(%ebp),%eax
  100aa7:	ba 00 00 00 00       	mov    $0x0,%edx
  100aac:	f7 75 c8             	divl   -0x38(%ebp)
  100aaf:	89 d0                	mov    %edx,%eax
  100ab1:	8b 55 cc             	mov    -0x34(%ebp),%edx
  100ab4:	89 d1                	mov    %edx,%ecx
  100ab6:	29 c1                	sub    %eax,%ecx
  100ab8:	89 c8                	mov    %ecx,%eax
	// Insert code here to:
	// (1)	allocate physical memory for the mem_pageinfo array,
	//	making it big enough to hold mem_npage entries.
	mem_pageinfo = mem_ptr(ROUNDUP(mem_phys(end), PAGESIZE));
	cprintf("kernel end %p, pageinfo %p\n", end, mem_pageinfo);
	cprintf("num pages %d, pagetable takes %d pages\n", mem_npage,
  100aba:	89 c2                	mov    %eax,%edx
  100abc:	c1 ea 0c             	shr    $0xc,%edx
  100abf:	a1 1c ed 11 00       	mov    0x11ed1c,%eax
  100ac4:	89 54 24 08          	mov    %edx,0x8(%esp)
  100ac8:	89 44 24 04          	mov    %eax,0x4(%esp)
  100acc:	c7 04 24 1c 86 10 00 	movl   $0x10861c,(%esp)
  100ad3:	e8 a5 71 00 00       	call   107c7d <cprintf>
	//     Some of it is in use, some is free.
	//     Which pages hold the kernel and the pageinfo array?
	//     Hint: the linker places the kernel (see start and end above),
	//     but YOU decide where to place the pageinfo array.
	// Change the code to reflect this.
	pageinfo **freetail = &mem_freelist;
  100ad8:	c7 45 b0 18 ed 11 00 	movl   $0x11ed18,-0x50(%ebp)
	int i;
	for (i = 0; i < mem_npage; i++) {
  100adf:	c7 45 b4 00 00 00 00 	movl   $0x0,-0x4c(%ebp)
  100ae6:	e9 4b 01 00 00       	jmp    100c36 <mem_init+0x2d7>
		if(i == 0 || i == 1) {
  100aeb:	83 7d b4 00          	cmpl   $0x0,-0x4c(%ebp)
  100aef:	0f 84 30 01 00 00    	je     100c25 <mem_init+0x2c6>
  100af5:	83 7d b4 01          	cmpl   $0x1,-0x4c(%ebp)
  100af9:	0f 84 29 01 00 00    	je     100c28 <mem_init+0x2c9>
			// cprintf("page %d: IDT/BIOS/IO\n", i);
			continue;
		}
		if(i >= MEM_IO/PAGESIZE && i < MEM_EXT/PAGESIZE) {
  100aff:	81 7d b4 9f 00 00 00 	cmpl   $0x9f,-0x4c(%ebp)
  100b06:	7e 0d                	jle    100b15 <mem_init+0x1b6>
  100b08:	81 7d b4 ff 00 00 00 	cmpl   $0xff,-0x4c(%ebp)
  100b0f:	0f 8e 16 01 00 00    	jle    100c2b <mem_init+0x2cc>
			// cprintf("page %d: BIOS IO\n", i);
			continue;
		}
		uint32_t kstartpg = ROUNDDOWN(mem_phys(start),PAGESIZE);
  100b15:	c7 45 e0 0c 00 10 00 	movl   $0x10000c,-0x20(%ebp)
  100b1c:	8b 45 e0             	mov    -0x20(%ebp),%eax
  100b1f:	25 00 f0 ff ff       	and    $0xfffff000,%eax
  100b24:	89 45 d0             	mov    %eax,-0x30(%ebp)
		kstartpg /= PAGESIZE;
  100b27:	8b 45 d0             	mov    -0x30(%ebp),%eax
  100b2a:	c1 e8 0c             	shr    $0xc,%eax
  100b2d:	89 45 d0             	mov    %eax,-0x30(%ebp)
		uint32_t kendpg = ROUNDUP(mem_phys(end), PAGESIZE);
  100b30:	c7 45 e4 00 10 00 00 	movl   $0x1000,-0x1c(%ebp)
  100b37:	b8 08 20 12 00       	mov    $0x122008,%eax
  100b3c:	83 e8 01             	sub    $0x1,%eax
  100b3f:	03 45 e4             	add    -0x1c(%ebp),%eax
  100b42:	89 45 e8             	mov    %eax,-0x18(%ebp)
  100b45:	8b 45 e8             	mov    -0x18(%ebp),%eax
  100b48:	ba 00 00 00 00       	mov    $0x0,%edx
  100b4d:	f7 75 e4             	divl   -0x1c(%ebp)
  100b50:	89 d0                	mov    %edx,%eax
  100b52:	8b 55 e8             	mov    -0x18(%ebp),%edx
  100b55:	89 d1                	mov    %edx,%ecx
  100b57:	29 c1                	sub    %eax,%ecx
  100b59:	89 c8                	mov    %ecx,%eax
  100b5b:	89 45 d4             	mov    %eax,-0x2c(%ebp)
		kendpg /= PAGESIZE;
  100b5e:	8b 45 d4             	mov    -0x2c(%ebp),%eax
  100b61:	c1 e8 0c             	shr    $0xc,%eax
  100b64:	89 45 d4             	mov    %eax,-0x2c(%ebp)
		if(i >= kstartpg && i < kendpg) {
  100b67:	8b 45 b4             	mov    -0x4c(%ebp),%eax
  100b6a:	3b 45 d0             	cmp    -0x30(%ebp),%eax
  100b6d:	72 0c                	jb     100b7b <mem_init+0x21c>
  100b6f:	8b 45 b4             	mov    -0x4c(%ebp),%eax
  100b72:	3b 45 d4             	cmp    -0x2c(%ebp),%eax
  100b75:	0f 82 b3 00 00 00    	jb     100c2e <mem_init+0x2cf>
			// cprintf("page %d: KERNEL\n", i);
			continue;
		}
		uint32_t mstartpg = ROUNDDOWN(mem_phys(mem_pageinfo),PAGESIZE);
  100b7b:	a1 24 ed 11 00       	mov    0x11ed24,%eax
  100b80:	89 45 ec             	mov    %eax,-0x14(%ebp)
  100b83:	8b 45 ec             	mov    -0x14(%ebp),%eax
  100b86:	25 00 f0 ff ff       	and    $0xfffff000,%eax
  100b8b:	89 45 d8             	mov    %eax,-0x28(%ebp)
		mstartpg /= PAGESIZE;
  100b8e:	8b 45 d8             	mov    -0x28(%ebp),%eax
  100b91:	c1 e8 0c             	shr    $0xc,%eax
  100b94:	89 45 d8             	mov    %eax,-0x28(%ebp)
		uint32_t mendpg = mem_phys(&mem_pageinfo[mem_npage]);
  100b97:	a1 24 ed 11 00       	mov    0x11ed24,%eax
  100b9c:	8b 15 1c ed 11 00    	mov    0x11ed1c,%edx
  100ba2:	c1 e2 03             	shl    $0x3,%edx
  100ba5:	01 d0                	add    %edx,%eax
  100ba7:	89 45 dc             	mov    %eax,-0x24(%ebp)
		mendpg = ROUNDUP(mendpg, PAGESIZE) / PAGESIZE;
  100baa:	c7 45 f0 00 10 00 00 	movl   $0x1000,-0x10(%ebp)
  100bb1:	8b 45 f0             	mov    -0x10(%ebp),%eax
  100bb4:	8b 55 dc             	mov    -0x24(%ebp),%edx
  100bb7:	8d 04 02             	lea    (%edx,%eax,1),%eax
  100bba:	83 e8 01             	sub    $0x1,%eax
  100bbd:	89 45 f4             	mov    %eax,-0xc(%ebp)
  100bc0:	8b 45 f4             	mov    -0xc(%ebp),%eax
  100bc3:	ba 00 00 00 00       	mov    $0x0,%edx
  100bc8:	f7 75 f0             	divl   -0x10(%ebp)
  100bcb:	89 d0                	mov    %edx,%eax
  100bcd:	8b 55 f4             	mov    -0xc(%ebp),%edx
  100bd0:	89 d1                	mov    %edx,%ecx
  100bd2:	29 c1                	sub    %eax,%ecx
  100bd4:	89 c8                	mov    %ecx,%eax
  100bd6:	c1 e8 0c             	shr    $0xc,%eax
  100bd9:	89 45 dc             	mov    %eax,-0x24(%ebp)
		if(i >= mstartpg && i < mendpg) {
  100bdc:	8b 45 b4             	mov    -0x4c(%ebp),%eax
  100bdf:	3b 45 d8             	cmp    -0x28(%ebp),%eax
  100be2:	72 08                	jb     100bec <mem_init+0x28d>
  100be4:	8b 45 b4             	mov    -0x4c(%ebp),%eax
  100be7:	3b 45 dc             	cmp    -0x24(%ebp),%eax
  100bea:	72 45                	jb     100c31 <mem_init+0x2d2>
			continue;
		}
		// if(i < 1000) cprintf("page %d: free\n", i);

		// A free page has no references to it.
		mem_pageinfo[i].refcount = 0;
  100bec:	a1 24 ed 11 00       	mov    0x11ed24,%eax
  100bf1:	8b 55 b4             	mov    -0x4c(%ebp),%edx
  100bf4:	c1 e2 03             	shl    $0x3,%edx
  100bf7:	01 d0                	add    %edx,%eax
  100bf9:	c7 40 04 00 00 00 00 	movl   $0x0,0x4(%eax)

		// Add the page to the end of the free list.
		*freetail = &mem_pageinfo[i];
  100c00:	a1 24 ed 11 00       	mov    0x11ed24,%eax
  100c05:	8b 55 b4             	mov    -0x4c(%ebp),%edx
  100c08:	c1 e2 03             	shl    $0x3,%edx
  100c0b:	8d 14 10             	lea    (%eax,%edx,1),%edx
  100c0e:	8b 45 b0             	mov    -0x50(%ebp),%eax
  100c11:	89 10                	mov    %edx,(%eax)
		freetail = &mem_pageinfo[i].free_next;
  100c13:	a1 24 ed 11 00       	mov    0x11ed24,%eax
  100c18:	8b 55 b4             	mov    -0x4c(%ebp),%edx
  100c1b:	c1 e2 03             	shl    $0x3,%edx
  100c1e:	01 d0                	add    %edx,%eax
  100c20:	89 45 b0             	mov    %eax,-0x50(%ebp)
  100c23:	eb 0d                	jmp    100c32 <mem_init+0x2d3>
	pageinfo **freetail = &mem_freelist;
	int i;
	for (i = 0; i < mem_npage; i++) {
		if(i == 0 || i == 1) {
			// cprintf("page %d: IDT/BIOS/IO\n", i);
			continue;
  100c25:	90                   	nop
  100c26:	eb 0a                	jmp    100c32 <mem_init+0x2d3>
  100c28:	90                   	nop
  100c29:	eb 07                	jmp    100c32 <mem_init+0x2d3>
		}
		if(i >= MEM_IO/PAGESIZE && i < MEM_EXT/PAGESIZE) {
			// cprintf("page %d: BIOS IO\n", i);
			continue;
  100c2b:	90                   	nop
  100c2c:	eb 04                	jmp    100c32 <mem_init+0x2d3>
		kstartpg /= PAGESIZE;
		uint32_t kendpg = ROUNDUP(mem_phys(end), PAGESIZE);
		kendpg /= PAGESIZE;
		if(i >= kstartpg && i < kendpg) {
			// cprintf("page %d: KERNEL\n", i);
			continue;
  100c2e:	90                   	nop
  100c2f:	eb 01                	jmp    100c32 <mem_init+0x2d3>
		mstartpg /= PAGESIZE;
		uint32_t mendpg = mem_phys(&mem_pageinfo[mem_npage]);
		mendpg = ROUNDUP(mendpg, PAGESIZE) / PAGESIZE;
		if(i >= mstartpg && i < mendpg) {
			// cprintf("page %d: MEMPAGES\n", i);
			continue;
  100c31:	90                   	nop
	//     Hint: the linker places the kernel (see start and end above),
	//     but YOU decide where to place the pageinfo array.
	// Change the code to reflect this.
	pageinfo **freetail = &mem_freelist;
	int i;
	for (i = 0; i < mem_npage; i++) {
  100c32:	83 45 b4 01          	addl   $0x1,-0x4c(%ebp)
  100c36:	8b 55 b4             	mov    -0x4c(%ebp),%edx
  100c39:	a1 1c ed 11 00       	mov    0x11ed1c,%eax
  100c3e:	39 c2                	cmp    %eax,%edx
  100c40:	0f 82 a5 fe ff ff    	jb     100aeb <mem_init+0x18c>

		// Add the page to the end of the free list.
		*freetail = &mem_pageinfo[i];
		freetail = &mem_pageinfo[i].free_next;
	}
	*freetail = NULL;	// null-terminate the freelist
  100c46:	8b 45 b0             	mov    -0x50(%ebp),%eax
  100c49:	c7 00 00 00 00 00    	movl   $0x0,(%eax)

	// ...and remove this when you're ready.
	// panic("mem_init() not implemented");

	// Check to make sure the page allocator seems to work correctly.
	mem_check();
  100c4f:	e8 b7 00 00 00       	call   100d0b <mem_check>
  100c54:	eb 01                	jmp    100c57 <mem_init+0x2f8>

void
mem_init(void)
{
	if (!cpu_onboot())	// only do once, on the boot CPU
		return;
  100c56:	90                   	nop
	// ...and remove this when you're ready.
	// panic("mem_init() not implemented");

	// Check to make sure the page allocator seems to work correctly.
	mem_check();
}
  100c57:	c9                   	leave  
  100c58:	c3                   	ret    

00100c59 <mem_alloc>:
//
// Hint: pi->refs should not be incremented 
// Hint: be sure to use proper mutual exclusion for multiprocessor operation.
pageinfo *
mem_alloc(void)
{
  100c59:	55                   	push   %ebp
  100c5a:	89 e5                	mov    %esp,%ebp
  100c5c:	83 ec 28             	sub    $0x28,%esp
	spinlock_acquire(&mem_lock);
  100c5f:	c7 04 24 e0 ec 11 00 	movl   $0x11ece0,(%esp)
  100c66:	e8 14 21 00 00       	call   102d7f <spinlock_acquire>
	if(!mem_freelist) {
  100c6b:	a1 18 ed 11 00       	mov    0x11ed18,%eax
  100c70:	85 c0                	test   %eax,%eax
  100c72:	75 13                	jne    100c87 <mem_alloc+0x2e>
		spinlock_release(&mem_lock);		
  100c74:	c7 04 24 e0 ec 11 00 	movl   $0x11ece0,(%esp)
  100c7b:	e8 74 21 00 00       	call   102df4 <spinlock_release>
		return NULL;
  100c80:	b8 00 00 00 00       	mov    $0x0,%eax
  100c85:	eb 21                	jmp    100ca8 <mem_alloc+0x4f>
	}
	pageinfo *r = mem_freelist;
  100c87:	a1 18 ed 11 00       	mov    0x11ed18,%eax
  100c8c:	89 45 f4             	mov    %eax,-0xc(%ebp)
	mem_freelist = r->free_next;
  100c8f:	8b 45 f4             	mov    -0xc(%ebp),%eax
  100c92:	8b 00                	mov    (%eax),%eax
  100c94:	a3 18 ed 11 00       	mov    %eax,0x11ed18
	spinlock_release(&mem_lock);
  100c99:	c7 04 24 e0 ec 11 00 	movl   $0x11ece0,(%esp)
  100ca0:	e8 4f 21 00 00       	call   102df4 <spinlock_release>
	return r;
  100ca5:	8b 45 f4             	mov    -0xc(%ebp),%eax
}
  100ca8:	c9                   	leave  
  100ca9:	c3                   	ret    

00100caa <mem_free>:
// Return a page to the free list, given its pageinfo pointer.
// (This function should only be called when pp->pp_ref reaches 0.)
//
void
mem_free(pageinfo *pi)
{
  100caa:	55                   	push   %ebp
  100cab:	89 e5                	mov    %esp,%ebp
  100cad:	83 ec 18             	sub    $0x18,%esp
	spinlock_acquire(&mem_lock);
  100cb0:	c7 04 24 e0 ec 11 00 	movl   $0x11ece0,(%esp)
  100cb7:	e8 c3 20 00 00       	call   102d7f <spinlock_acquire>
	assert(pi->refcount == 0);
  100cbc:	8b 45 08             	mov    0x8(%ebp),%eax
  100cbf:	8b 40 04             	mov    0x4(%eax),%eax
  100cc2:	85 c0                	test   %eax,%eax
  100cc4:	74 24                	je     100cea <mem_free+0x40>
  100cc6:	c7 44 24 0c 44 86 10 	movl   $0x108644,0xc(%esp)
  100ccd:	00 
  100cce:	c7 44 24 08 72 85 10 	movl   $0x108572,0x8(%esp)
  100cd5:	00 
  100cd6:	c7 44 24 04 aa 00 00 	movl   $0xaa,0x4(%esp)
  100cdd:	00 
  100cde:	c7 04 24 94 85 10 00 	movl   $0x108594,(%esp)
  100ce5:	e8 ce f7 ff ff       	call   1004b8 <debug_panic>
	pi->free_next = mem_freelist;
  100cea:	8b 15 18 ed 11 00    	mov    0x11ed18,%edx
  100cf0:	8b 45 08             	mov    0x8(%ebp),%eax
  100cf3:	89 10                	mov    %edx,(%eax)
	mem_freelist = pi;
  100cf5:	8b 45 08             	mov    0x8(%ebp),%eax
  100cf8:	a3 18 ed 11 00       	mov    %eax,0x11ed18
	spinlock_release(&mem_lock);
  100cfd:	c7 04 24 e0 ec 11 00 	movl   $0x11ece0,(%esp)
  100d04:	e8 eb 20 00 00       	call   102df4 <spinlock_release>
}
  100d09:	c9                   	leave  
  100d0a:	c3                   	ret    

00100d0b <mem_check>:
// Check the physical page allocator (mem_alloc(), mem_free())
// for correct operation after initialization via mem_init().
//
void
mem_check()
{
  100d0b:	55                   	push   %ebp
  100d0c:	89 e5                	mov    %esp,%ebp
  100d0e:	83 ec 38             	sub    $0x38,%esp
	int i;

        // if there's a page that shouldn't be on
        // the free list, try to make sure it
        // eventually causes trouble.
	int freepages = 0;
  100d11:	c7 45 f4 00 00 00 00 	movl   $0x0,-0xc(%ebp)
	for (pp = mem_freelist; pp != 0; pp = pp->free_next) {
  100d18:	a1 18 ed 11 00       	mov    0x11ed18,%eax
  100d1d:	89 45 dc             	mov    %eax,-0x24(%ebp)
  100d20:	eb 38                	jmp    100d5a <mem_check+0x4f>
		memset(mem_pi2ptr(pp), 0x97, 128);
  100d22:	8b 55 dc             	mov    -0x24(%ebp),%edx
  100d25:	a1 24 ed 11 00       	mov    0x11ed24,%eax
  100d2a:	89 d1                	mov    %edx,%ecx
  100d2c:	29 c1                	sub    %eax,%ecx
  100d2e:	89 c8                	mov    %ecx,%eax
  100d30:	c1 f8 03             	sar    $0x3,%eax
  100d33:	c1 e0 0c             	shl    $0xc,%eax
  100d36:	c7 44 24 08 80 00 00 	movl   $0x80,0x8(%esp)
  100d3d:	00 
  100d3e:	c7 44 24 04 97 00 00 	movl   $0x97,0x4(%esp)
  100d45:	00 
  100d46:	89 04 24             	mov    %eax,(%esp)
  100d49:	e8 16 71 00 00       	call   107e64 <memset>
		freepages++;
  100d4e:	83 45 f4 01          	addl   $0x1,-0xc(%ebp)

        // if there's a page that shouldn't be on
        // the free list, try to make sure it
        // eventually causes trouble.
	int freepages = 0;
	for (pp = mem_freelist; pp != 0; pp = pp->free_next) {
  100d52:	8b 45 dc             	mov    -0x24(%ebp),%eax
  100d55:	8b 00                	mov    (%eax),%eax
  100d57:	89 45 dc             	mov    %eax,-0x24(%ebp)
  100d5a:	83 7d dc 00          	cmpl   $0x0,-0x24(%ebp)
  100d5e:	75 c2                	jne    100d22 <mem_check+0x17>
		memset(mem_pi2ptr(pp), 0x97, 128);
		freepages++;
	}
	cprintf("mem_check: %d free pages\n", freepages);
  100d60:	8b 45 f4             	mov    -0xc(%ebp),%eax
  100d63:	89 44 24 04          	mov    %eax,0x4(%esp)
  100d67:	c7 04 24 56 86 10 00 	movl   $0x108656,(%esp)
  100d6e:	e8 0a 6f 00 00       	call   107c7d <cprintf>
	assert(freepages < mem_npage);	// can't have more free than total!
  100d73:	8b 55 f4             	mov    -0xc(%ebp),%edx
  100d76:	a1 1c ed 11 00       	mov    0x11ed1c,%eax
  100d7b:	39 c2                	cmp    %eax,%edx
  100d7d:	72 24                	jb     100da3 <mem_check+0x98>
  100d7f:	c7 44 24 0c 70 86 10 	movl   $0x108670,0xc(%esp)
  100d86:	00 
  100d87:	c7 44 24 08 72 85 10 	movl   $0x108572,0x8(%esp)
  100d8e:	00 
  100d8f:	c7 44 24 04 c4 00 00 	movl   $0xc4,0x4(%esp)
  100d96:	00 
  100d97:	c7 04 24 94 85 10 00 	movl   $0x108594,(%esp)
  100d9e:	e8 15 f7 ff ff       	call   1004b8 <debug_panic>
	assert(freepages > 16000);	// make sure it's in the right ballpark
  100da3:	81 7d f4 80 3e 00 00 	cmpl   $0x3e80,-0xc(%ebp)
  100daa:	7f 24                	jg     100dd0 <mem_check+0xc5>
  100dac:	c7 44 24 0c 86 86 10 	movl   $0x108686,0xc(%esp)
  100db3:	00 
  100db4:	c7 44 24 08 72 85 10 	movl   $0x108572,0x8(%esp)
  100dbb:	00 
  100dbc:	c7 44 24 04 c5 00 00 	movl   $0xc5,0x4(%esp)
  100dc3:	00 
  100dc4:	c7 04 24 94 85 10 00 	movl   $0x108594,(%esp)
  100dcb:	e8 e8 f6 ff ff       	call   1004b8 <debug_panic>

	// should be able to allocate three pages
	pp0 = pp1 = pp2 = 0;
  100dd0:	c7 45 e8 00 00 00 00 	movl   $0x0,-0x18(%ebp)
  100dd7:	8b 45 e8             	mov    -0x18(%ebp),%eax
  100dda:	89 45 e4             	mov    %eax,-0x1c(%ebp)
  100ddd:	8b 45 e4             	mov    -0x1c(%ebp),%eax
  100de0:	89 45 e0             	mov    %eax,-0x20(%ebp)
	pp0 = mem_alloc(); assert(pp0 != 0);
  100de3:	e8 71 fe ff ff       	call   100c59 <mem_alloc>
  100de8:	89 45 e0             	mov    %eax,-0x20(%ebp)
  100deb:	83 7d e0 00          	cmpl   $0x0,-0x20(%ebp)
  100def:	75 24                	jne    100e15 <mem_check+0x10a>
  100df1:	c7 44 24 0c 98 86 10 	movl   $0x108698,0xc(%esp)
  100df8:	00 
  100df9:	c7 44 24 08 72 85 10 	movl   $0x108572,0x8(%esp)
  100e00:	00 
  100e01:	c7 44 24 04 c9 00 00 	movl   $0xc9,0x4(%esp)
  100e08:	00 
  100e09:	c7 04 24 94 85 10 00 	movl   $0x108594,(%esp)
  100e10:	e8 a3 f6 ff ff       	call   1004b8 <debug_panic>
	pp1 = mem_alloc(); assert(pp1 != 0);
  100e15:	e8 3f fe ff ff       	call   100c59 <mem_alloc>
  100e1a:	89 45 e4             	mov    %eax,-0x1c(%ebp)
  100e1d:	83 7d e4 00          	cmpl   $0x0,-0x1c(%ebp)
  100e21:	75 24                	jne    100e47 <mem_check+0x13c>
  100e23:	c7 44 24 0c a1 86 10 	movl   $0x1086a1,0xc(%esp)
  100e2a:	00 
  100e2b:	c7 44 24 08 72 85 10 	movl   $0x108572,0x8(%esp)
  100e32:	00 
  100e33:	c7 44 24 04 ca 00 00 	movl   $0xca,0x4(%esp)
  100e3a:	00 
  100e3b:	c7 04 24 94 85 10 00 	movl   $0x108594,(%esp)
  100e42:	e8 71 f6 ff ff       	call   1004b8 <debug_panic>
	pp2 = mem_alloc(); assert(pp2 != 0);
  100e47:	e8 0d fe ff ff       	call   100c59 <mem_alloc>
  100e4c:	89 45 e8             	mov    %eax,-0x18(%ebp)
  100e4f:	83 7d e8 00          	cmpl   $0x0,-0x18(%ebp)
  100e53:	75 24                	jne    100e79 <mem_check+0x16e>
  100e55:	c7 44 24 0c aa 86 10 	movl   $0x1086aa,0xc(%esp)
  100e5c:	00 
  100e5d:	c7 44 24 08 72 85 10 	movl   $0x108572,0x8(%esp)
  100e64:	00 
  100e65:	c7 44 24 04 cb 00 00 	movl   $0xcb,0x4(%esp)
  100e6c:	00 
  100e6d:	c7 04 24 94 85 10 00 	movl   $0x108594,(%esp)
  100e74:	e8 3f f6 ff ff       	call   1004b8 <debug_panic>

	assert(pp0);
  100e79:	83 7d e0 00          	cmpl   $0x0,-0x20(%ebp)
  100e7d:	75 24                	jne    100ea3 <mem_check+0x198>
  100e7f:	c7 44 24 0c b3 86 10 	movl   $0x1086b3,0xc(%esp)
  100e86:	00 
  100e87:	c7 44 24 08 72 85 10 	movl   $0x108572,0x8(%esp)
  100e8e:	00 
  100e8f:	c7 44 24 04 cd 00 00 	movl   $0xcd,0x4(%esp)
  100e96:	00 
  100e97:	c7 04 24 94 85 10 00 	movl   $0x108594,(%esp)
  100e9e:	e8 15 f6 ff ff       	call   1004b8 <debug_panic>
	assert(pp1 && pp1 != pp0);
  100ea3:	83 7d e4 00          	cmpl   $0x0,-0x1c(%ebp)
  100ea7:	74 08                	je     100eb1 <mem_check+0x1a6>
  100ea9:	8b 45 e4             	mov    -0x1c(%ebp),%eax
  100eac:	3b 45 e0             	cmp    -0x20(%ebp),%eax
  100eaf:	75 24                	jne    100ed5 <mem_check+0x1ca>
  100eb1:	c7 44 24 0c b7 86 10 	movl   $0x1086b7,0xc(%esp)
  100eb8:	00 
  100eb9:	c7 44 24 08 72 85 10 	movl   $0x108572,0x8(%esp)
  100ec0:	00 
  100ec1:	c7 44 24 04 ce 00 00 	movl   $0xce,0x4(%esp)
  100ec8:	00 
  100ec9:	c7 04 24 94 85 10 00 	movl   $0x108594,(%esp)
  100ed0:	e8 e3 f5 ff ff       	call   1004b8 <debug_panic>
	assert(pp2 && pp2 != pp1 && pp2 != pp0);
  100ed5:	83 7d e8 00          	cmpl   $0x0,-0x18(%ebp)
  100ed9:	74 10                	je     100eeb <mem_check+0x1e0>
  100edb:	8b 45 e8             	mov    -0x18(%ebp),%eax
  100ede:	3b 45 e4             	cmp    -0x1c(%ebp),%eax
  100ee1:	74 08                	je     100eeb <mem_check+0x1e0>
  100ee3:	8b 45 e8             	mov    -0x18(%ebp),%eax
  100ee6:	3b 45 e0             	cmp    -0x20(%ebp),%eax
  100ee9:	75 24                	jne    100f0f <mem_check+0x204>
  100eeb:	c7 44 24 0c cc 86 10 	movl   $0x1086cc,0xc(%esp)
  100ef2:	00 
  100ef3:	c7 44 24 08 72 85 10 	movl   $0x108572,0x8(%esp)
  100efa:	00 
  100efb:	c7 44 24 04 cf 00 00 	movl   $0xcf,0x4(%esp)
  100f02:	00 
  100f03:	c7 04 24 94 85 10 00 	movl   $0x108594,(%esp)
  100f0a:	e8 a9 f5 ff ff       	call   1004b8 <debug_panic>
        assert(mem_pi2phys(pp0) < mem_npage*PAGESIZE);
  100f0f:	8b 55 e0             	mov    -0x20(%ebp),%edx
  100f12:	a1 24 ed 11 00       	mov    0x11ed24,%eax
  100f17:	89 d1                	mov    %edx,%ecx
  100f19:	29 c1                	sub    %eax,%ecx
  100f1b:	89 c8                	mov    %ecx,%eax
  100f1d:	c1 f8 03             	sar    $0x3,%eax
  100f20:	c1 e0 0c             	shl    $0xc,%eax
  100f23:	8b 15 1c ed 11 00    	mov    0x11ed1c,%edx
  100f29:	c1 e2 0c             	shl    $0xc,%edx
  100f2c:	39 d0                	cmp    %edx,%eax
  100f2e:	72 24                	jb     100f54 <mem_check+0x249>
  100f30:	c7 44 24 0c ec 86 10 	movl   $0x1086ec,0xc(%esp)
  100f37:	00 
  100f38:	c7 44 24 08 72 85 10 	movl   $0x108572,0x8(%esp)
  100f3f:	00 
  100f40:	c7 44 24 04 d0 00 00 	movl   $0xd0,0x4(%esp)
  100f47:	00 
  100f48:	c7 04 24 94 85 10 00 	movl   $0x108594,(%esp)
  100f4f:	e8 64 f5 ff ff       	call   1004b8 <debug_panic>
        assert(mem_pi2phys(pp1) < mem_npage*PAGESIZE);
  100f54:	8b 55 e4             	mov    -0x1c(%ebp),%edx
  100f57:	a1 24 ed 11 00       	mov    0x11ed24,%eax
  100f5c:	89 d1                	mov    %edx,%ecx
  100f5e:	29 c1                	sub    %eax,%ecx
  100f60:	89 c8                	mov    %ecx,%eax
  100f62:	c1 f8 03             	sar    $0x3,%eax
  100f65:	c1 e0 0c             	shl    $0xc,%eax
  100f68:	8b 15 1c ed 11 00    	mov    0x11ed1c,%edx
  100f6e:	c1 e2 0c             	shl    $0xc,%edx
  100f71:	39 d0                	cmp    %edx,%eax
  100f73:	72 24                	jb     100f99 <mem_check+0x28e>
  100f75:	c7 44 24 0c 14 87 10 	movl   $0x108714,0xc(%esp)
  100f7c:	00 
  100f7d:	c7 44 24 08 72 85 10 	movl   $0x108572,0x8(%esp)
  100f84:	00 
  100f85:	c7 44 24 04 d1 00 00 	movl   $0xd1,0x4(%esp)
  100f8c:	00 
  100f8d:	c7 04 24 94 85 10 00 	movl   $0x108594,(%esp)
  100f94:	e8 1f f5 ff ff       	call   1004b8 <debug_panic>
        assert(mem_pi2phys(pp2) < mem_npage*PAGESIZE);
  100f99:	8b 55 e8             	mov    -0x18(%ebp),%edx
  100f9c:	a1 24 ed 11 00       	mov    0x11ed24,%eax
  100fa1:	89 d1                	mov    %edx,%ecx
  100fa3:	29 c1                	sub    %eax,%ecx
  100fa5:	89 c8                	mov    %ecx,%eax
  100fa7:	c1 f8 03             	sar    $0x3,%eax
  100faa:	c1 e0 0c             	shl    $0xc,%eax
  100fad:	8b 15 1c ed 11 00    	mov    0x11ed1c,%edx
  100fb3:	c1 e2 0c             	shl    $0xc,%edx
  100fb6:	39 d0                	cmp    %edx,%eax
  100fb8:	72 24                	jb     100fde <mem_check+0x2d3>
  100fba:	c7 44 24 0c 3c 87 10 	movl   $0x10873c,0xc(%esp)
  100fc1:	00 
  100fc2:	c7 44 24 08 72 85 10 	movl   $0x108572,0x8(%esp)
  100fc9:	00 
  100fca:	c7 44 24 04 d2 00 00 	movl   $0xd2,0x4(%esp)
  100fd1:	00 
  100fd2:	c7 04 24 94 85 10 00 	movl   $0x108594,(%esp)
  100fd9:	e8 da f4 ff ff       	call   1004b8 <debug_panic>

	// temporarily steal the rest of the free pages
	fl = mem_freelist;
  100fde:	a1 18 ed 11 00       	mov    0x11ed18,%eax
  100fe3:	89 45 ec             	mov    %eax,-0x14(%ebp)
	mem_freelist = 0;
  100fe6:	c7 05 18 ed 11 00 00 	movl   $0x0,0x11ed18
  100fed:	00 00 00 

	// should be no free memory
	assert(mem_alloc() == 0);
  100ff0:	e8 64 fc ff ff       	call   100c59 <mem_alloc>
  100ff5:	85 c0                	test   %eax,%eax
  100ff7:	74 24                	je     10101d <mem_check+0x312>
  100ff9:	c7 44 24 0c 62 87 10 	movl   $0x108762,0xc(%esp)
  101000:	00 
  101001:	c7 44 24 08 72 85 10 	movl   $0x108572,0x8(%esp)
  101008:	00 
  101009:	c7 44 24 04 d9 00 00 	movl   $0xd9,0x4(%esp)
  101010:	00 
  101011:	c7 04 24 94 85 10 00 	movl   $0x108594,(%esp)
  101018:	e8 9b f4 ff ff       	call   1004b8 <debug_panic>

        // free and re-allocate?
        mem_free(pp0);
  10101d:	8b 45 e0             	mov    -0x20(%ebp),%eax
  101020:	89 04 24             	mov    %eax,(%esp)
  101023:	e8 82 fc ff ff       	call   100caa <mem_free>
        mem_free(pp1);
  101028:	8b 45 e4             	mov    -0x1c(%ebp),%eax
  10102b:	89 04 24             	mov    %eax,(%esp)
  10102e:	e8 77 fc ff ff       	call   100caa <mem_free>
        mem_free(pp2);
  101033:	8b 45 e8             	mov    -0x18(%ebp),%eax
  101036:	89 04 24             	mov    %eax,(%esp)
  101039:	e8 6c fc ff ff       	call   100caa <mem_free>
	pp0 = pp1 = pp2 = 0;
  10103e:	c7 45 e8 00 00 00 00 	movl   $0x0,-0x18(%ebp)
  101045:	8b 45 e8             	mov    -0x18(%ebp),%eax
  101048:	89 45 e4             	mov    %eax,-0x1c(%ebp)
  10104b:	8b 45 e4             	mov    -0x1c(%ebp),%eax
  10104e:	89 45 e0             	mov    %eax,-0x20(%ebp)
	pp0 = mem_alloc(); assert(pp0 != 0);
  101051:	e8 03 fc ff ff       	call   100c59 <mem_alloc>
  101056:	89 45 e0             	mov    %eax,-0x20(%ebp)
  101059:	83 7d e0 00          	cmpl   $0x0,-0x20(%ebp)
  10105d:	75 24                	jne    101083 <mem_check+0x378>
  10105f:	c7 44 24 0c 98 86 10 	movl   $0x108698,0xc(%esp)
  101066:	00 
  101067:	c7 44 24 08 72 85 10 	movl   $0x108572,0x8(%esp)
  10106e:	00 
  10106f:	c7 44 24 04 e0 00 00 	movl   $0xe0,0x4(%esp)
  101076:	00 
  101077:	c7 04 24 94 85 10 00 	movl   $0x108594,(%esp)
  10107e:	e8 35 f4 ff ff       	call   1004b8 <debug_panic>
	pp1 = mem_alloc(); assert(pp1 != 0);
  101083:	e8 d1 fb ff ff       	call   100c59 <mem_alloc>
  101088:	89 45 e4             	mov    %eax,-0x1c(%ebp)
  10108b:	83 7d e4 00          	cmpl   $0x0,-0x1c(%ebp)
  10108f:	75 24                	jne    1010b5 <mem_check+0x3aa>
  101091:	c7 44 24 0c a1 86 10 	movl   $0x1086a1,0xc(%esp)
  101098:	00 
  101099:	c7 44 24 08 72 85 10 	movl   $0x108572,0x8(%esp)
  1010a0:	00 
  1010a1:	c7 44 24 04 e1 00 00 	movl   $0xe1,0x4(%esp)
  1010a8:	00 
  1010a9:	c7 04 24 94 85 10 00 	movl   $0x108594,(%esp)
  1010b0:	e8 03 f4 ff ff       	call   1004b8 <debug_panic>
	pp2 = mem_alloc(); assert(pp2 != 0);
  1010b5:	e8 9f fb ff ff       	call   100c59 <mem_alloc>
  1010ba:	89 45 e8             	mov    %eax,-0x18(%ebp)
  1010bd:	83 7d e8 00          	cmpl   $0x0,-0x18(%ebp)
  1010c1:	75 24                	jne    1010e7 <mem_check+0x3dc>
  1010c3:	c7 44 24 0c aa 86 10 	movl   $0x1086aa,0xc(%esp)
  1010ca:	00 
  1010cb:	c7 44 24 08 72 85 10 	movl   $0x108572,0x8(%esp)
  1010d2:	00 
  1010d3:	c7 44 24 04 e2 00 00 	movl   $0xe2,0x4(%esp)
  1010da:	00 
  1010db:	c7 04 24 94 85 10 00 	movl   $0x108594,(%esp)
  1010e2:	e8 d1 f3 ff ff       	call   1004b8 <debug_panic>
	assert(pp0);
  1010e7:	83 7d e0 00          	cmpl   $0x0,-0x20(%ebp)
  1010eb:	75 24                	jne    101111 <mem_check+0x406>
  1010ed:	c7 44 24 0c b3 86 10 	movl   $0x1086b3,0xc(%esp)
  1010f4:	00 
  1010f5:	c7 44 24 08 72 85 10 	movl   $0x108572,0x8(%esp)
  1010fc:	00 
  1010fd:	c7 44 24 04 e3 00 00 	movl   $0xe3,0x4(%esp)
  101104:	00 
  101105:	c7 04 24 94 85 10 00 	movl   $0x108594,(%esp)
  10110c:	e8 a7 f3 ff ff       	call   1004b8 <debug_panic>
	assert(pp1 && pp1 != pp0);
  101111:	83 7d e4 00          	cmpl   $0x0,-0x1c(%ebp)
  101115:	74 08                	je     10111f <mem_check+0x414>
  101117:	8b 45 e4             	mov    -0x1c(%ebp),%eax
  10111a:	3b 45 e0             	cmp    -0x20(%ebp),%eax
  10111d:	75 24                	jne    101143 <mem_check+0x438>
  10111f:	c7 44 24 0c b7 86 10 	movl   $0x1086b7,0xc(%esp)
  101126:	00 
  101127:	c7 44 24 08 72 85 10 	movl   $0x108572,0x8(%esp)
  10112e:	00 
  10112f:	c7 44 24 04 e4 00 00 	movl   $0xe4,0x4(%esp)
  101136:	00 
  101137:	c7 04 24 94 85 10 00 	movl   $0x108594,(%esp)
  10113e:	e8 75 f3 ff ff       	call   1004b8 <debug_panic>
	assert(pp2 && pp2 != pp1 && pp2 != pp0);
  101143:	83 7d e8 00          	cmpl   $0x0,-0x18(%ebp)
  101147:	74 10                	je     101159 <mem_check+0x44e>
  101149:	8b 45 e8             	mov    -0x18(%ebp),%eax
  10114c:	3b 45 e4             	cmp    -0x1c(%ebp),%eax
  10114f:	74 08                	je     101159 <mem_check+0x44e>
  101151:	8b 45 e8             	mov    -0x18(%ebp),%eax
  101154:	3b 45 e0             	cmp    -0x20(%ebp),%eax
  101157:	75 24                	jne    10117d <mem_check+0x472>
  101159:	c7 44 24 0c cc 86 10 	movl   $0x1086cc,0xc(%esp)
  101160:	00 
  101161:	c7 44 24 08 72 85 10 	movl   $0x108572,0x8(%esp)
  101168:	00 
  101169:	c7 44 24 04 e5 00 00 	movl   $0xe5,0x4(%esp)
  101170:	00 
  101171:	c7 04 24 94 85 10 00 	movl   $0x108594,(%esp)
  101178:	e8 3b f3 ff ff       	call   1004b8 <debug_panic>
	assert(mem_alloc() == 0);
  10117d:	e8 d7 fa ff ff       	call   100c59 <mem_alloc>
  101182:	85 c0                	test   %eax,%eax
  101184:	74 24                	je     1011aa <mem_check+0x49f>
  101186:	c7 44 24 0c 62 87 10 	movl   $0x108762,0xc(%esp)
  10118d:	00 
  10118e:	c7 44 24 08 72 85 10 	movl   $0x108572,0x8(%esp)
  101195:	00 
  101196:	c7 44 24 04 e6 00 00 	movl   $0xe6,0x4(%esp)
  10119d:	00 
  10119e:	c7 04 24 94 85 10 00 	movl   $0x108594,(%esp)
  1011a5:	e8 0e f3 ff ff       	call   1004b8 <debug_panic>

	// give free list back
	mem_freelist = fl;
  1011aa:	8b 45 ec             	mov    -0x14(%ebp),%eax
  1011ad:	a3 18 ed 11 00       	mov    %eax,0x11ed18

	// free the pages we took
	mem_free(pp0);
  1011b2:	8b 45 e0             	mov    -0x20(%ebp),%eax
  1011b5:	89 04 24             	mov    %eax,(%esp)
  1011b8:	e8 ed fa ff ff       	call   100caa <mem_free>
	mem_free(pp1);
  1011bd:	8b 45 e4             	mov    -0x1c(%ebp),%eax
  1011c0:	89 04 24             	mov    %eax,(%esp)
  1011c3:	e8 e2 fa ff ff       	call   100caa <mem_free>
	mem_free(pp2);
  1011c8:	8b 45 e8             	mov    -0x18(%ebp),%eax
  1011cb:	89 04 24             	mov    %eax,(%esp)
  1011ce:	e8 d7 fa ff ff       	call   100caa <mem_free>

	cprintf("mem_check() succeeded!\n");
  1011d3:	c7 04 24 73 87 10 00 	movl   $0x108773,(%esp)
  1011da:	e8 9e 6a 00 00       	call   107c7d <cprintf>
}
  1011df:	c9                   	leave  
  1011e0:	c3                   	ret    
  1011e1:	90                   	nop
  1011e2:	90                   	nop
  1011e3:	90                   	nop

001011e4 <xchg>:
}

// Atomically set *addr to newval and return the old value of *addr.
static inline uint32_t
xchg(volatile uint32_t *addr, uint32_t newval)
{
  1011e4:	55                   	push   %ebp
  1011e5:	89 e5                	mov    %esp,%ebp
  1011e7:	83 ec 10             	sub    $0x10,%esp
	uint32_t result;

	// The + in "+m" denotes a read-modify-write operand.
	asm volatile("lock; xchgl %0, %1" :
  1011ea:	8b 55 08             	mov    0x8(%ebp),%edx
  1011ed:	8b 45 0c             	mov    0xc(%ebp),%eax
  1011f0:	8b 4d 08             	mov    0x8(%ebp),%ecx
  1011f3:	f0 87 02             	lock xchg %eax,(%edx)
  1011f6:	89 45 fc             	mov    %eax,-0x4(%ebp)
	       "+m" (*addr), "=a" (result) :
	       "1" (newval) :
	       "cc");
	return result;
  1011f9:	8b 45 fc             	mov    -0x4(%ebp),%eax
}
  1011fc:	c9                   	leave  
  1011fd:	c3                   	ret    

001011fe <cpu_cur>:
#define cpu_disabled(c)		0

// Find the CPU struct representing the current CPU.
// It always resides at the bottom of the page containing the CPU's stack.
static inline cpu *
cpu_cur() {
  1011fe:	55                   	push   %ebp
  1011ff:	89 e5                	mov    %esp,%ebp
  101201:	83 ec 28             	sub    $0x28,%esp

static gcc_inline uint32_t
read_esp(void)
{
        uint32_t esp;
        __asm __volatile("movl %%esp,%0" : "=rm" (esp));
  101204:	89 65 f4             	mov    %esp,-0xc(%ebp)
        return esp;
  101207:	8b 45 f4             	mov    -0xc(%ebp),%eax
	cpu *c = (cpu*)ROUNDDOWN(read_esp(), PAGESIZE);
  10120a:	89 45 f0             	mov    %eax,-0x10(%ebp)
  10120d:	8b 45 f0             	mov    -0x10(%ebp),%eax
  101210:	25 00 f0 ff ff       	and    $0xfffff000,%eax
  101215:	89 45 ec             	mov    %eax,-0x14(%ebp)
	assert(c->magic == CPU_MAGIC);
  101218:	8b 45 ec             	mov    -0x14(%ebp),%eax
  10121b:	8b 80 b8 00 00 00    	mov    0xb8(%eax),%eax
  101221:	3d 32 54 76 98       	cmp    $0x98765432,%eax
  101226:	74 24                	je     10124c <cpu_cur+0x4e>
  101228:	c7 44 24 0c 8b 87 10 	movl   $0x10878b,0xc(%esp)
  10122f:	00 
  101230:	c7 44 24 08 a1 87 10 	movl   $0x1087a1,0x8(%esp)
  101237:	00 
  101238:	c7 44 24 04 5c 00 00 	movl   $0x5c,0x4(%esp)
  10123f:	00 
  101240:	c7 04 24 b6 87 10 00 	movl   $0x1087b6,(%esp)
  101247:	e8 6c f2 ff ff       	call   1004b8 <debug_panic>
	return c;
  10124c:	8b 45 ec             	mov    -0x14(%ebp),%eax
}
  10124f:	c9                   	leave  
  101250:	c3                   	ret    

00101251 <cpu_onboot>:

// Returns true if we're running on the bootstrap CPU.
static inline int
cpu_onboot() {
  101251:	55                   	push   %ebp
  101252:	89 e5                	mov    %esp,%ebp
  101254:	83 ec 08             	sub    $0x8,%esp
	return cpu_cur() == &cpu_boot;
  101257:	e8 a2 ff ff ff       	call   1011fe <cpu_cur>
  10125c:	3d 00 b0 10 00       	cmp    $0x10b000,%eax
  101261:	0f 94 c0             	sete   %al
  101264:	0f b6 c0             	movzbl %al,%eax
}
  101267:	c9                   	leave  
  101268:	c3                   	ret    

00101269 <cpu_init>:
	magic: CPU_MAGIC
};


void cpu_init()
{
  101269:	55                   	push   %ebp
  10126a:	89 e5                	mov    %esp,%ebp
  10126c:	53                   	push   %ebx
  10126d:	83 ec 24             	sub    $0x24,%esp
	cpu *c = cpu_cur();
  101270:	e8 89 ff ff ff       	call   1011fe <cpu_cur>
  101275:	89 45 f0             	mov    %eax,-0x10(%ebp)

	// Load the GDT
	struct pseudodesc gdt_pd = {
		sizeof(c->gdt) - 1, (uint32_t) c->gdt };
  101278:	8b 45 f0             	mov    -0x10(%ebp),%eax
  10127b:	66 c7 45 ea 37 00    	movw   $0x37,-0x16(%ebp)
  101281:	89 45 ec             	mov    %eax,-0x14(%ebp)
	asm volatile("lgdt %0" : : "m" (gdt_pd));
  101284:	0f 01 55 ea          	lgdtl  -0x16(%ebp)

	// Reload all segment registers.
	asm volatile("movw %%ax,%%gs" :: "a" (CPU_GDT_UDATA|3));
  101288:	b8 23 00 00 00       	mov    $0x23,%eax
  10128d:	8e e8                	mov    %eax,%gs
	asm volatile("movw %%ax,%%fs" :: "a" (CPU_GDT_UDATA|3));
  10128f:	b8 23 00 00 00       	mov    $0x23,%eax
  101294:	8e e0                	mov    %eax,%fs
	asm volatile("movw %%ax,%%es" :: "a" (CPU_GDT_KDATA));
  101296:	b8 10 00 00 00       	mov    $0x10,%eax
  10129b:	8e c0                	mov    %eax,%es
	asm volatile("movw %%ax,%%ds" :: "a" (CPU_GDT_KDATA));
  10129d:	b8 10 00 00 00       	mov    $0x10,%eax
  1012a2:	8e d8                	mov    %eax,%ds
	asm volatile("movw %%ax,%%ss" :: "a" (CPU_GDT_KDATA));
  1012a4:	b8 10 00 00 00       	mov    $0x10,%eax
  1012a9:	8e d0                	mov    %eax,%ss
	asm volatile("ljmp %0,$1f\n 1:\n" :: "i" (CPU_GDT_KCODE));
  1012ab:	ea b2 12 10 00 08 00 	ljmp   $0x8,$0x1012b2
	// reload CS

	c->gdt[CPU_GDT_TSS >> 3] = SEGDESC16(0, STS_T32A, 
  1012b2:	8b 45 f0             	mov    -0x10(%ebp),%eax
  1012b5:	83 c0 38             	add    $0x38,%eax
  1012b8:	89 c3                	mov    %eax,%ebx
  1012ba:	8b 45 f0             	mov    -0x10(%ebp),%eax
  1012bd:	83 c0 38             	add    $0x38,%eax
  1012c0:	c1 e8 10             	shr    $0x10,%eax
  1012c3:	89 c1                	mov    %eax,%ecx
  1012c5:	8b 45 f0             	mov    -0x10(%ebp),%eax
  1012c8:	83 c0 38             	add    $0x38,%eax
  1012cb:	c1 e8 18             	shr    $0x18,%eax
  1012ce:	89 c2                	mov    %eax,%edx
  1012d0:	8b 45 f0             	mov    -0x10(%ebp),%eax
  1012d3:	66 c7 40 30 67 00    	movw   $0x67,0x30(%eax)
  1012d9:	8b 45 f0             	mov    -0x10(%ebp),%eax
  1012dc:	66 89 58 32          	mov    %bx,0x32(%eax)
  1012e0:	8b 45 f0             	mov    -0x10(%ebp),%eax
  1012e3:	88 48 34             	mov    %cl,0x34(%eax)
  1012e6:	8b 45 f0             	mov    -0x10(%ebp),%eax
  1012e9:	0f b6 48 35          	movzbl 0x35(%eax),%ecx
  1012ed:	83 e1 f0             	and    $0xfffffff0,%ecx
  1012f0:	83 c9 09             	or     $0x9,%ecx
  1012f3:	88 48 35             	mov    %cl,0x35(%eax)
  1012f6:	8b 45 f0             	mov    -0x10(%ebp),%eax
  1012f9:	0f b6 48 35          	movzbl 0x35(%eax),%ecx
  1012fd:	83 e1 ef             	and    $0xffffffef,%ecx
  101300:	88 48 35             	mov    %cl,0x35(%eax)
  101303:	8b 45 f0             	mov    -0x10(%ebp),%eax
  101306:	0f b6 48 35          	movzbl 0x35(%eax),%ecx
  10130a:	83 e1 9f             	and    $0xffffff9f,%ecx
  10130d:	88 48 35             	mov    %cl,0x35(%eax)
  101310:	8b 45 f0             	mov    -0x10(%ebp),%eax
  101313:	0f b6 48 35          	movzbl 0x35(%eax),%ecx
  101317:	83 c9 80             	or     $0xffffff80,%ecx
  10131a:	88 48 35             	mov    %cl,0x35(%eax)
  10131d:	8b 45 f0             	mov    -0x10(%ebp),%eax
  101320:	0f b6 48 36          	movzbl 0x36(%eax),%ecx
  101324:	83 e1 f0             	and    $0xfffffff0,%ecx
  101327:	88 48 36             	mov    %cl,0x36(%eax)
  10132a:	8b 45 f0             	mov    -0x10(%ebp),%eax
  10132d:	0f b6 48 36          	movzbl 0x36(%eax),%ecx
  101331:	83 e1 ef             	and    $0xffffffef,%ecx
  101334:	88 48 36             	mov    %cl,0x36(%eax)
  101337:	8b 45 f0             	mov    -0x10(%ebp),%eax
  10133a:	0f b6 48 36          	movzbl 0x36(%eax),%ecx
  10133e:	83 e1 df             	and    $0xffffffdf,%ecx
  101341:	88 48 36             	mov    %cl,0x36(%eax)
  101344:	8b 45 f0             	mov    -0x10(%ebp),%eax
  101347:	0f b6 48 36          	movzbl 0x36(%eax),%ecx
  10134b:	83 c9 40             	or     $0x40,%ecx
  10134e:	88 48 36             	mov    %cl,0x36(%eax)
  101351:	8b 45 f0             	mov    -0x10(%ebp),%eax
  101354:	0f b6 48 36          	movzbl 0x36(%eax),%ecx
  101358:	83 e1 7f             	and    $0x7f,%ecx
  10135b:	88 48 36             	mov    %cl,0x36(%eax)
  10135e:	8b 45 f0             	mov    -0x10(%ebp),%eax
  101361:	88 50 37             	mov    %dl,0x37(%eax)
			(uintptr_t)(&(c->tss)), sizeof(taskstate)-1, 0);
	c->tss.ts_esp0 = (uintptr_t)(c->kstackhi);
  101364:	8b 45 f0             	mov    -0x10(%ebp),%eax
  101367:	05 00 10 00 00       	add    $0x1000,%eax
  10136c:	89 c2                	mov    %eax,%edx
  10136e:	8b 45 f0             	mov    -0x10(%ebp),%eax
  101371:	89 50 3c             	mov    %edx,0x3c(%eax)
	c->tss.ts_ss0 = CPU_GDT_KDATA;
  101374:	8b 45 f0             	mov    -0x10(%ebp),%eax
  101377:	66 c7 40 40 10 00    	movw   $0x10,0x40(%eax)
  10137d:	66 c7 45 f6 30 00    	movw   $0x30,-0xa(%ebp)
}

static gcc_inline void
ltr(uint16_t sel)
{
	__asm __volatile("ltr %0" : : "r" (sel));
  101383:	0f b7 45 f6          	movzwl -0xa(%ebp),%eax
  101387:	0f 00 d8             	ltr    %ax
	ltr(CPU_GDT_TSS);

	// We don't need an LDT.
	asm volatile("lldt %%ax" :: "a" (0));
  10138a:	b8 00 00 00 00       	mov    $0x0,%eax
  10138f:	0f 00 d0             	lldt   %ax
	cprintf("cpu_init complete\n");
  101392:	c7 04 24 c3 87 10 00 	movl   $0x1087c3,(%esp)
  101399:	e8 df 68 00 00       	call   107c7d <cprintf>
}
  10139e:	83 c4 24             	add    $0x24,%esp
  1013a1:	5b                   	pop    %ebx
  1013a2:	5d                   	pop    %ebp
  1013a3:	c3                   	ret    

001013a4 <cpu_alloc>:

// Allocate an additional cpu struct representing a non-bootstrap processor.
cpu *
cpu_alloc(void)
{
  1013a4:	55                   	push   %ebp
  1013a5:	89 e5                	mov    %esp,%ebp
  1013a7:	83 ec 28             	sub    $0x28,%esp
	// Pointer to the cpu.next pointer of the last CPU on the list,
	// for chaining on new CPUs in cpu_alloc().  Note: static.
	static cpu **cpu_tail = &cpu_boot.next;

	pageinfo *pi = mem_alloc();
  1013aa:	e8 aa f8 ff ff       	call   100c59 <mem_alloc>
  1013af:	89 45 f0             	mov    %eax,-0x10(%ebp)
	assert(pi != 0);	// shouldn't be out of memory just yet!
  1013b2:	83 7d f0 00          	cmpl   $0x0,-0x10(%ebp)
  1013b6:	75 24                	jne    1013dc <cpu_alloc+0x38>
  1013b8:	c7 44 24 0c d6 87 10 	movl   $0x1087d6,0xc(%esp)
  1013bf:	00 
  1013c0:	c7 44 24 08 a1 87 10 	movl   $0x1087a1,0x8(%esp)
  1013c7:	00 
  1013c8:	c7 44 24 04 5c 00 00 	movl   $0x5c,0x4(%esp)
  1013cf:	00 
  1013d0:	c7 04 24 de 87 10 00 	movl   $0x1087de,(%esp)
  1013d7:	e8 dc f0 ff ff       	call   1004b8 <debug_panic>

	cpu *c = (cpu*) mem_pi2ptr(pi);
  1013dc:	8b 55 f0             	mov    -0x10(%ebp),%edx
  1013df:	a1 24 ed 11 00       	mov    0x11ed24,%eax
  1013e4:	89 d1                	mov    %edx,%ecx
  1013e6:	29 c1                	sub    %eax,%ecx
  1013e8:	89 c8                	mov    %ecx,%eax
  1013ea:	c1 f8 03             	sar    $0x3,%eax
  1013ed:	c1 e0 0c             	shl    $0xc,%eax
  1013f0:	89 45 f4             	mov    %eax,-0xc(%ebp)

	// Clear the whole page for good measure: cpu struct and kernel stack
	memset(c, 0, PAGESIZE);
  1013f3:	c7 44 24 08 00 10 00 	movl   $0x1000,0x8(%esp)
  1013fa:	00 
  1013fb:	c7 44 24 04 00 00 00 	movl   $0x0,0x4(%esp)
  101402:	00 
  101403:	8b 45 f4             	mov    -0xc(%ebp),%eax
  101406:	89 04 24             	mov    %eax,(%esp)
  101409:	e8 56 6a 00 00       	call   107e64 <memset>
	// when it starts up and calls cpu_init().

	// Initialize the new cpu's GDT by copying from the cpu_boot.
	// The TSS descriptor will be filled in later by cpu_init().
	assert(sizeof(c->gdt) == sizeof(segdesc) * CPU_GDT_NDESC);
	memmove(c->gdt, cpu_boot.gdt, sizeof(c->gdt));
  10140e:	8b 45 f4             	mov    -0xc(%ebp),%eax
  101411:	c7 44 24 08 38 00 00 	movl   $0x38,0x8(%esp)
  101418:	00 
  101419:	c7 44 24 04 00 b0 10 	movl   $0x10b000,0x4(%esp)
  101420:	00 
  101421:	89 04 24             	mov    %eax,(%esp)
  101424:	e8 af 6a 00 00       	call   107ed8 <memmove>

	// Magic verification tag for stack overflow/cpu corruption checking
	c->magic = CPU_MAGIC;
  101429:	8b 45 f4             	mov    -0xc(%ebp),%eax
  10142c:	c7 80 b8 00 00 00 32 	movl   $0x98765432,0xb8(%eax)
  101433:	54 76 98 

	// Chain the new CPU onto the tail of the list.
	*cpu_tail = c;
  101436:	a1 00 c0 10 00       	mov    0x10c000,%eax
  10143b:	8b 55 f4             	mov    -0xc(%ebp),%edx
  10143e:	89 10                	mov    %edx,(%eax)
	cpu_tail = &c->next;
  101440:	8b 45 f4             	mov    -0xc(%ebp),%eax
  101443:	05 a8 00 00 00       	add    $0xa8,%eax
  101448:	a3 00 c0 10 00       	mov    %eax,0x10c000

	return c;
  10144d:	8b 45 f4             	mov    -0xc(%ebp),%eax
}
  101450:	c9                   	leave  
  101451:	c3                   	ret    

00101452 <cpu_bootothers>:

void
cpu_bootothers(void)
{
  101452:	55                   	push   %ebp
  101453:	89 e5                	mov    %esp,%ebp
  101455:	83 ec 28             	sub    $0x28,%esp
	extern uint8_t _binary_obj_boot_bootother_start[],
			_binary_obj_boot_bootother_size[];

	if (!cpu_onboot()) {
  101458:	e8 f4 fd ff ff       	call   101251 <cpu_onboot>
  10145d:	85 c0                	test   %eax,%eax
  10145f:	75 1f                	jne    101480 <cpu_bootothers+0x2e>
		// Just inform the boot cpu we've booted.
		xchg(&cpu_cur()->booted, 1);
  101461:	e8 98 fd ff ff       	call   1011fe <cpu_cur>
  101466:	05 b0 00 00 00       	add    $0xb0,%eax
  10146b:	c7 44 24 04 01 00 00 	movl   $0x1,0x4(%esp)
  101472:	00 
  101473:	89 04 24             	mov    %eax,(%esp)
  101476:	e8 69 fd ff ff       	call   1011e4 <xchg>
		return;
  10147b:	e9 91 00 00 00       	jmp    101511 <cpu_bootothers+0xbf>
	}

	// Write bootstrap code to unused memory at 0x1000.
	uint8_t *code = (uint8_t*)0x1000;
  101480:	c7 45 f0 00 10 00 00 	movl   $0x1000,-0x10(%ebp)
	memmove(code, _binary_obj_boot_bootother_start,
  101487:	b8 6a 00 00 00       	mov    $0x6a,%eax
  10148c:	89 44 24 08          	mov    %eax,0x8(%esp)
  101490:	c7 44 24 04 ac 83 11 	movl   $0x1183ac,0x4(%esp)
  101497:	00 
  101498:	8b 45 f0             	mov    -0x10(%ebp),%eax
  10149b:	89 04 24             	mov    %eax,(%esp)
  10149e:	e8 35 6a 00 00       	call   107ed8 <memmove>
		(uint32_t)_binary_obj_boot_bootother_size);

	cpu *c;
	for(c = &cpu_boot; c; c = c->next){
  1014a3:	c7 45 f4 00 b0 10 00 	movl   $0x10b000,-0xc(%ebp)
  1014aa:	eb 5f                	jmp    10150b <cpu_bootothers+0xb9>
		if(c == cpu_cur())  // We''ve started already.
  1014ac:	e8 4d fd ff ff       	call   1011fe <cpu_cur>
  1014b1:	3b 45 f4             	cmp    -0xc(%ebp),%eax
  1014b4:	74 48                	je     1014fe <cpu_bootothers+0xac>
			continue;

		// Fill in %esp, %eip and start code on cpu.
		*(void**)(code-4) = c->kstackhi;
  1014b6:	8b 45 f0             	mov    -0x10(%ebp),%eax
  1014b9:	83 e8 04             	sub    $0x4,%eax
  1014bc:	8b 55 f4             	mov    -0xc(%ebp),%edx
  1014bf:	81 c2 00 10 00 00    	add    $0x1000,%edx
  1014c5:	89 10                	mov    %edx,(%eax)
		*(void**)(code-8) = init;
  1014c7:	8b 45 f0             	mov    -0x10(%ebp),%eax
  1014ca:	83 e8 08             	sub    $0x8,%eax
  1014cd:	c7 00 93 00 10 00    	movl   $0x100093,(%eax)
		lapic_startcpu(c->id, (uint32_t)code);
  1014d3:	8b 55 f0             	mov    -0x10(%ebp),%edx
  1014d6:	8b 45 f4             	mov    -0xc(%ebp),%eax
  1014d9:	0f b6 80 ac 00 00 00 	movzbl 0xac(%eax),%eax
  1014e0:	0f b6 c0             	movzbl %al,%eax
  1014e3:	89 54 24 04          	mov    %edx,0x4(%esp)
  1014e7:	89 04 24             	mov    %eax,(%esp)
  1014ea:	e8 85 5d 00 00       	call   107274 <lapic_startcpu>

		// Wait for cpu to get through bootstrap.
		while(c->booted == 0)
  1014ef:	8b 45 f4             	mov    -0xc(%ebp),%eax
  1014f2:	8b 80 b0 00 00 00    	mov    0xb0(%eax),%eax
  1014f8:	85 c0                	test   %eax,%eax
  1014fa:	74 f3                	je     1014ef <cpu_bootothers+0x9d>
  1014fc:	eb 01                	jmp    1014ff <cpu_bootothers+0xad>
		(uint32_t)_binary_obj_boot_bootother_size);

	cpu *c;
	for(c = &cpu_boot; c; c = c->next){
		if(c == cpu_cur())  // We''ve started already.
			continue;
  1014fe:	90                   	nop
	uint8_t *code = (uint8_t*)0x1000;
	memmove(code, _binary_obj_boot_bootother_start,
		(uint32_t)_binary_obj_boot_bootother_size);

	cpu *c;
	for(c = &cpu_boot; c; c = c->next){
  1014ff:	8b 45 f4             	mov    -0xc(%ebp),%eax
  101502:	8b 80 a8 00 00 00    	mov    0xa8(%eax),%eax
  101508:	89 45 f4             	mov    %eax,-0xc(%ebp)
  10150b:	83 7d f4 00          	cmpl   $0x0,-0xc(%ebp)
  10150f:	75 9b                	jne    1014ac <cpu_bootothers+0x5a>

		// Wait for cpu to get through bootstrap.
		while(c->booted == 0)
			;
	}
}
  101511:	c9                   	leave  
  101512:	c3                   	ret    
  101513:	90                   	nop

00101514 <cpu_cur>:
#define cpu_disabled(c)		0

// Find the CPU struct representing the current CPU.
// It always resides at the bottom of the page containing the CPU's stack.
static inline cpu *
cpu_cur() {
  101514:	55                   	push   %ebp
  101515:	89 e5                	mov    %esp,%ebp
  101517:	83 ec 28             	sub    $0x28,%esp

static gcc_inline uint32_t
read_esp(void)
{
        uint32_t esp;
        __asm __volatile("movl %%esp,%0" : "=rm" (esp));
  10151a:	89 65 f4             	mov    %esp,-0xc(%ebp)
        return esp;
  10151d:	8b 45 f4             	mov    -0xc(%ebp),%eax
	cpu *c = (cpu*)ROUNDDOWN(read_esp(), PAGESIZE);
  101520:	89 45 f0             	mov    %eax,-0x10(%ebp)
  101523:	8b 45 f0             	mov    -0x10(%ebp),%eax
  101526:	25 00 f0 ff ff       	and    $0xfffff000,%eax
  10152b:	89 45 ec             	mov    %eax,-0x14(%ebp)
	assert(c->magic == CPU_MAGIC);
  10152e:	8b 45 ec             	mov    -0x14(%ebp),%eax
  101531:	8b 80 b8 00 00 00    	mov    0xb8(%eax),%eax
  101537:	3d 32 54 76 98       	cmp    $0x98765432,%eax
  10153c:	74 24                	je     101562 <cpu_cur+0x4e>
  10153e:	c7 44 24 0c 00 88 10 	movl   $0x108800,0xc(%esp)
  101545:	00 
  101546:	c7 44 24 08 16 88 10 	movl   $0x108816,0x8(%esp)
  10154d:	00 
  10154e:	c7 44 24 04 5c 00 00 	movl   $0x5c,0x4(%esp)
  101555:	00 
  101556:	c7 04 24 2b 88 10 00 	movl   $0x10882b,(%esp)
  10155d:	e8 56 ef ff ff       	call   1004b8 <debug_panic>
	return c;
  101562:	8b 45 ec             	mov    -0x14(%ebp),%eax
}
  101565:	c9                   	leave  
  101566:	c3                   	ret    

00101567 <cpu_onboot>:

// Returns true if we're running on the bootstrap CPU.
static inline int
cpu_onboot() {
  101567:	55                   	push   %ebp
  101568:	89 e5                	mov    %esp,%ebp
  10156a:	83 ec 08             	sub    $0x8,%esp
	return cpu_cur() == &cpu_boot;
  10156d:	e8 a2 ff ff ff       	call   101514 <cpu_cur>
  101572:	3d 00 b0 10 00       	cmp    $0x10b000,%eax
  101577:	0f 94 c0             	sete   %al
  10157a:	0f b6 c0             	movzbl %al,%eax
}
  10157d:	c9                   	leave  
  10157e:	c3                   	ret    

0010157f <trap_init_idt>:
};


static void
trap_init_idt(void)
{
  10157f:	55                   	push   %ebp
  101580:	89 e5                	mov    %esp,%ebp
  101582:	83 ec 18             	sub    $0x18,%esp
	extern void (*tv49)(void);
	extern void (*tv50)(void);
	extern void (*tv500)(void);
	extern void (*tv501)(void);

	cprintf("initializing idt\n");
  101585:	c7 04 24 38 88 10 00 	movl   $0x108838,(%esp)
  10158c:	e8 ec 66 00 00       	call   107c7d <cprintf>
	SETGATE(idt[0], 0, CPU_GDT_KCODE, &tv0, 0);
  101591:	b8 c0 27 10 00       	mov    $0x1027c0,%eax
  101596:	66 a3 20 a2 11 00    	mov    %ax,0x11a220
  10159c:	66 c7 05 22 a2 11 00 	movw   $0x8,0x11a222
  1015a3:	08 00 
  1015a5:	0f b6 05 24 a2 11 00 	movzbl 0x11a224,%eax
  1015ac:	83 e0 e0             	and    $0xffffffe0,%eax
  1015af:	a2 24 a2 11 00       	mov    %al,0x11a224
  1015b4:	0f b6 05 24 a2 11 00 	movzbl 0x11a224,%eax
  1015bb:	83 e0 1f             	and    $0x1f,%eax
  1015be:	a2 24 a2 11 00       	mov    %al,0x11a224
  1015c3:	0f b6 05 25 a2 11 00 	movzbl 0x11a225,%eax
  1015ca:	83 e0 f0             	and    $0xfffffff0,%eax
  1015cd:	83 c8 0e             	or     $0xe,%eax
  1015d0:	a2 25 a2 11 00       	mov    %al,0x11a225
  1015d5:	0f b6 05 25 a2 11 00 	movzbl 0x11a225,%eax
  1015dc:	83 e0 ef             	and    $0xffffffef,%eax
  1015df:	a2 25 a2 11 00       	mov    %al,0x11a225
  1015e4:	0f b6 05 25 a2 11 00 	movzbl 0x11a225,%eax
  1015eb:	83 e0 9f             	and    $0xffffff9f,%eax
  1015ee:	a2 25 a2 11 00       	mov    %al,0x11a225
  1015f3:	0f b6 05 25 a2 11 00 	movzbl 0x11a225,%eax
  1015fa:	83 c8 80             	or     $0xffffff80,%eax
  1015fd:	a2 25 a2 11 00       	mov    %al,0x11a225
  101602:	b8 c0 27 10 00       	mov    $0x1027c0,%eax
  101607:	c1 e8 10             	shr    $0x10,%eax
  10160a:	66 a3 26 a2 11 00    	mov    %ax,0x11a226
	SETGATE(idt[2], 0, CPU_GDT_KCODE, &tv2, 0);
  101610:	b8 ca 27 10 00       	mov    $0x1027ca,%eax
  101615:	66 a3 30 a2 11 00    	mov    %ax,0x11a230
  10161b:	66 c7 05 32 a2 11 00 	movw   $0x8,0x11a232
  101622:	08 00 
  101624:	0f b6 05 34 a2 11 00 	movzbl 0x11a234,%eax
  10162b:	83 e0 e0             	and    $0xffffffe0,%eax
  10162e:	a2 34 a2 11 00       	mov    %al,0x11a234
  101633:	0f b6 05 34 a2 11 00 	movzbl 0x11a234,%eax
  10163a:	83 e0 1f             	and    $0x1f,%eax
  10163d:	a2 34 a2 11 00       	mov    %al,0x11a234
  101642:	0f b6 05 35 a2 11 00 	movzbl 0x11a235,%eax
  101649:	83 e0 f0             	and    $0xfffffff0,%eax
  10164c:	83 c8 0e             	or     $0xe,%eax
  10164f:	a2 35 a2 11 00       	mov    %al,0x11a235
  101654:	0f b6 05 35 a2 11 00 	movzbl 0x11a235,%eax
  10165b:	83 e0 ef             	and    $0xffffffef,%eax
  10165e:	a2 35 a2 11 00       	mov    %al,0x11a235
  101663:	0f b6 05 35 a2 11 00 	movzbl 0x11a235,%eax
  10166a:	83 e0 9f             	and    $0xffffff9f,%eax
  10166d:	a2 35 a2 11 00       	mov    %al,0x11a235
  101672:	0f b6 05 35 a2 11 00 	movzbl 0x11a235,%eax
  101679:	83 c8 80             	or     $0xffffff80,%eax
  10167c:	a2 35 a2 11 00       	mov    %al,0x11a235
  101681:	b8 ca 27 10 00       	mov    $0x1027ca,%eax
  101686:	c1 e8 10             	shr    $0x10,%eax
  101689:	66 a3 36 a2 11 00    	mov    %ax,0x11a236
	SETGATE(idt[3], 0, CPU_GDT_KCODE, &tv3, 3);
  10168f:	b8 d4 27 10 00       	mov    $0x1027d4,%eax
  101694:	66 a3 38 a2 11 00    	mov    %ax,0x11a238
  10169a:	66 c7 05 3a a2 11 00 	movw   $0x8,0x11a23a
  1016a1:	08 00 
  1016a3:	0f b6 05 3c a2 11 00 	movzbl 0x11a23c,%eax
  1016aa:	83 e0 e0             	and    $0xffffffe0,%eax
  1016ad:	a2 3c a2 11 00       	mov    %al,0x11a23c
  1016b2:	0f b6 05 3c a2 11 00 	movzbl 0x11a23c,%eax
  1016b9:	83 e0 1f             	and    $0x1f,%eax
  1016bc:	a2 3c a2 11 00       	mov    %al,0x11a23c
  1016c1:	0f b6 05 3d a2 11 00 	movzbl 0x11a23d,%eax
  1016c8:	83 e0 f0             	and    $0xfffffff0,%eax
  1016cb:	83 c8 0e             	or     $0xe,%eax
  1016ce:	a2 3d a2 11 00       	mov    %al,0x11a23d
  1016d3:	0f b6 05 3d a2 11 00 	movzbl 0x11a23d,%eax
  1016da:	83 e0 ef             	and    $0xffffffef,%eax
  1016dd:	a2 3d a2 11 00       	mov    %al,0x11a23d
  1016e2:	0f b6 05 3d a2 11 00 	movzbl 0x11a23d,%eax
  1016e9:	83 c8 60             	or     $0x60,%eax
  1016ec:	a2 3d a2 11 00       	mov    %al,0x11a23d
  1016f1:	0f b6 05 3d a2 11 00 	movzbl 0x11a23d,%eax
  1016f8:	83 c8 80             	or     $0xffffff80,%eax
  1016fb:	a2 3d a2 11 00       	mov    %al,0x11a23d
  101700:	b8 d4 27 10 00       	mov    $0x1027d4,%eax
  101705:	c1 e8 10             	shr    $0x10,%eax
  101708:	66 a3 3e a2 11 00    	mov    %ax,0x11a23e
	SETGATE(idt[4], 0, CPU_GDT_KCODE, &tv4, 3);
  10170e:	b8 de 27 10 00       	mov    $0x1027de,%eax
  101713:	66 a3 40 a2 11 00    	mov    %ax,0x11a240
  101719:	66 c7 05 42 a2 11 00 	movw   $0x8,0x11a242
  101720:	08 00 
  101722:	0f b6 05 44 a2 11 00 	movzbl 0x11a244,%eax
  101729:	83 e0 e0             	and    $0xffffffe0,%eax
  10172c:	a2 44 a2 11 00       	mov    %al,0x11a244
  101731:	0f b6 05 44 a2 11 00 	movzbl 0x11a244,%eax
  101738:	83 e0 1f             	and    $0x1f,%eax
  10173b:	a2 44 a2 11 00       	mov    %al,0x11a244
  101740:	0f b6 05 45 a2 11 00 	movzbl 0x11a245,%eax
  101747:	83 e0 f0             	and    $0xfffffff0,%eax
  10174a:	83 c8 0e             	or     $0xe,%eax
  10174d:	a2 45 a2 11 00       	mov    %al,0x11a245
  101752:	0f b6 05 45 a2 11 00 	movzbl 0x11a245,%eax
  101759:	83 e0 ef             	and    $0xffffffef,%eax
  10175c:	a2 45 a2 11 00       	mov    %al,0x11a245
  101761:	0f b6 05 45 a2 11 00 	movzbl 0x11a245,%eax
  101768:	83 c8 60             	or     $0x60,%eax
  10176b:	a2 45 a2 11 00       	mov    %al,0x11a245
  101770:	0f b6 05 45 a2 11 00 	movzbl 0x11a245,%eax
  101777:	83 c8 80             	or     $0xffffff80,%eax
  10177a:	a2 45 a2 11 00       	mov    %al,0x11a245
  10177f:	b8 de 27 10 00       	mov    $0x1027de,%eax
  101784:	c1 e8 10             	shr    $0x10,%eax
  101787:	66 a3 46 a2 11 00    	mov    %ax,0x11a246
	SETGATE(idt[5], 0, CPU_GDT_KCODE, &tv5, 0);
  10178d:	b8 e8 27 10 00       	mov    $0x1027e8,%eax
  101792:	66 a3 48 a2 11 00    	mov    %ax,0x11a248
  101798:	66 c7 05 4a a2 11 00 	movw   $0x8,0x11a24a
  10179f:	08 00 
  1017a1:	0f b6 05 4c a2 11 00 	movzbl 0x11a24c,%eax
  1017a8:	83 e0 e0             	and    $0xffffffe0,%eax
  1017ab:	a2 4c a2 11 00       	mov    %al,0x11a24c
  1017b0:	0f b6 05 4c a2 11 00 	movzbl 0x11a24c,%eax
  1017b7:	83 e0 1f             	and    $0x1f,%eax
  1017ba:	a2 4c a2 11 00       	mov    %al,0x11a24c
  1017bf:	0f b6 05 4d a2 11 00 	movzbl 0x11a24d,%eax
  1017c6:	83 e0 f0             	and    $0xfffffff0,%eax
  1017c9:	83 c8 0e             	or     $0xe,%eax
  1017cc:	a2 4d a2 11 00       	mov    %al,0x11a24d
  1017d1:	0f b6 05 4d a2 11 00 	movzbl 0x11a24d,%eax
  1017d8:	83 e0 ef             	and    $0xffffffef,%eax
  1017db:	a2 4d a2 11 00       	mov    %al,0x11a24d
  1017e0:	0f b6 05 4d a2 11 00 	movzbl 0x11a24d,%eax
  1017e7:	83 e0 9f             	and    $0xffffff9f,%eax
  1017ea:	a2 4d a2 11 00       	mov    %al,0x11a24d
  1017ef:	0f b6 05 4d a2 11 00 	movzbl 0x11a24d,%eax
  1017f6:	83 c8 80             	or     $0xffffff80,%eax
  1017f9:	a2 4d a2 11 00       	mov    %al,0x11a24d
  1017fe:	b8 e8 27 10 00       	mov    $0x1027e8,%eax
  101803:	c1 e8 10             	shr    $0x10,%eax
  101806:	66 a3 4e a2 11 00    	mov    %ax,0x11a24e
	SETGATE(idt[6], 0, CPU_GDT_KCODE, &tv6, 0);
  10180c:	b8 f2 27 10 00       	mov    $0x1027f2,%eax
  101811:	66 a3 50 a2 11 00    	mov    %ax,0x11a250
  101817:	66 c7 05 52 a2 11 00 	movw   $0x8,0x11a252
  10181e:	08 00 
  101820:	0f b6 05 54 a2 11 00 	movzbl 0x11a254,%eax
  101827:	83 e0 e0             	and    $0xffffffe0,%eax
  10182a:	a2 54 a2 11 00       	mov    %al,0x11a254
  10182f:	0f b6 05 54 a2 11 00 	movzbl 0x11a254,%eax
  101836:	83 e0 1f             	and    $0x1f,%eax
  101839:	a2 54 a2 11 00       	mov    %al,0x11a254
  10183e:	0f b6 05 55 a2 11 00 	movzbl 0x11a255,%eax
  101845:	83 e0 f0             	and    $0xfffffff0,%eax
  101848:	83 c8 0e             	or     $0xe,%eax
  10184b:	a2 55 a2 11 00       	mov    %al,0x11a255
  101850:	0f b6 05 55 a2 11 00 	movzbl 0x11a255,%eax
  101857:	83 e0 ef             	and    $0xffffffef,%eax
  10185a:	a2 55 a2 11 00       	mov    %al,0x11a255
  10185f:	0f b6 05 55 a2 11 00 	movzbl 0x11a255,%eax
  101866:	83 e0 9f             	and    $0xffffff9f,%eax
  101869:	a2 55 a2 11 00       	mov    %al,0x11a255
  10186e:	0f b6 05 55 a2 11 00 	movzbl 0x11a255,%eax
  101875:	83 c8 80             	or     $0xffffff80,%eax
  101878:	a2 55 a2 11 00       	mov    %al,0x11a255
  10187d:	b8 f2 27 10 00       	mov    $0x1027f2,%eax
  101882:	c1 e8 10             	shr    $0x10,%eax
  101885:	66 a3 56 a2 11 00    	mov    %ax,0x11a256
	SETGATE(idt[7], 0, CPU_GDT_KCODE, &tv7, 0);
  10188b:	b8 fc 27 10 00       	mov    $0x1027fc,%eax
  101890:	66 a3 58 a2 11 00    	mov    %ax,0x11a258
  101896:	66 c7 05 5a a2 11 00 	movw   $0x8,0x11a25a
  10189d:	08 00 
  10189f:	0f b6 05 5c a2 11 00 	movzbl 0x11a25c,%eax
  1018a6:	83 e0 e0             	and    $0xffffffe0,%eax
  1018a9:	a2 5c a2 11 00       	mov    %al,0x11a25c
  1018ae:	0f b6 05 5c a2 11 00 	movzbl 0x11a25c,%eax
  1018b5:	83 e0 1f             	and    $0x1f,%eax
  1018b8:	a2 5c a2 11 00       	mov    %al,0x11a25c
  1018bd:	0f b6 05 5d a2 11 00 	movzbl 0x11a25d,%eax
  1018c4:	83 e0 f0             	and    $0xfffffff0,%eax
  1018c7:	83 c8 0e             	or     $0xe,%eax
  1018ca:	a2 5d a2 11 00       	mov    %al,0x11a25d
  1018cf:	0f b6 05 5d a2 11 00 	movzbl 0x11a25d,%eax
  1018d6:	83 e0 ef             	and    $0xffffffef,%eax
  1018d9:	a2 5d a2 11 00       	mov    %al,0x11a25d
  1018de:	0f b6 05 5d a2 11 00 	movzbl 0x11a25d,%eax
  1018e5:	83 e0 9f             	and    $0xffffff9f,%eax
  1018e8:	a2 5d a2 11 00       	mov    %al,0x11a25d
  1018ed:	0f b6 05 5d a2 11 00 	movzbl 0x11a25d,%eax
  1018f4:	83 c8 80             	or     $0xffffff80,%eax
  1018f7:	a2 5d a2 11 00       	mov    %al,0x11a25d
  1018fc:	b8 fc 27 10 00       	mov    $0x1027fc,%eax
  101901:	c1 e8 10             	shr    $0x10,%eax
  101904:	66 a3 5e a2 11 00    	mov    %ax,0x11a25e
	SETGATE(idt[8], 0, CPU_GDT_KCODE, &tv8, 0);
  10190a:	b8 06 28 10 00       	mov    $0x102806,%eax
  10190f:	66 a3 60 a2 11 00    	mov    %ax,0x11a260
  101915:	66 c7 05 62 a2 11 00 	movw   $0x8,0x11a262
  10191c:	08 00 
  10191e:	0f b6 05 64 a2 11 00 	movzbl 0x11a264,%eax
  101925:	83 e0 e0             	and    $0xffffffe0,%eax
  101928:	a2 64 a2 11 00       	mov    %al,0x11a264
  10192d:	0f b6 05 64 a2 11 00 	movzbl 0x11a264,%eax
  101934:	83 e0 1f             	and    $0x1f,%eax
  101937:	a2 64 a2 11 00       	mov    %al,0x11a264
  10193c:	0f b6 05 65 a2 11 00 	movzbl 0x11a265,%eax
  101943:	83 e0 f0             	and    $0xfffffff0,%eax
  101946:	83 c8 0e             	or     $0xe,%eax
  101949:	a2 65 a2 11 00       	mov    %al,0x11a265
  10194e:	0f b6 05 65 a2 11 00 	movzbl 0x11a265,%eax
  101955:	83 e0 ef             	and    $0xffffffef,%eax
  101958:	a2 65 a2 11 00       	mov    %al,0x11a265
  10195d:	0f b6 05 65 a2 11 00 	movzbl 0x11a265,%eax
  101964:	83 e0 9f             	and    $0xffffff9f,%eax
  101967:	a2 65 a2 11 00       	mov    %al,0x11a265
  10196c:	0f b6 05 65 a2 11 00 	movzbl 0x11a265,%eax
  101973:	83 c8 80             	or     $0xffffff80,%eax
  101976:	a2 65 a2 11 00       	mov    %al,0x11a265
  10197b:	b8 06 28 10 00       	mov    $0x102806,%eax
  101980:	c1 e8 10             	shr    $0x10,%eax
  101983:	66 a3 66 a2 11 00    	mov    %ax,0x11a266
	SETGATE(idt[10], 0, CPU_GDT_KCODE, &tv10, 0);
  101989:	b8 0e 28 10 00       	mov    $0x10280e,%eax
  10198e:	66 a3 70 a2 11 00    	mov    %ax,0x11a270
  101994:	66 c7 05 72 a2 11 00 	movw   $0x8,0x11a272
  10199b:	08 00 
  10199d:	0f b6 05 74 a2 11 00 	movzbl 0x11a274,%eax
  1019a4:	83 e0 e0             	and    $0xffffffe0,%eax
  1019a7:	a2 74 a2 11 00       	mov    %al,0x11a274
  1019ac:	0f b6 05 74 a2 11 00 	movzbl 0x11a274,%eax
  1019b3:	83 e0 1f             	and    $0x1f,%eax
  1019b6:	a2 74 a2 11 00       	mov    %al,0x11a274
  1019bb:	0f b6 05 75 a2 11 00 	movzbl 0x11a275,%eax
  1019c2:	83 e0 f0             	and    $0xfffffff0,%eax
  1019c5:	83 c8 0e             	or     $0xe,%eax
  1019c8:	a2 75 a2 11 00       	mov    %al,0x11a275
  1019cd:	0f b6 05 75 a2 11 00 	movzbl 0x11a275,%eax
  1019d4:	83 e0 ef             	and    $0xffffffef,%eax
  1019d7:	a2 75 a2 11 00       	mov    %al,0x11a275
  1019dc:	0f b6 05 75 a2 11 00 	movzbl 0x11a275,%eax
  1019e3:	83 e0 9f             	and    $0xffffff9f,%eax
  1019e6:	a2 75 a2 11 00       	mov    %al,0x11a275
  1019eb:	0f b6 05 75 a2 11 00 	movzbl 0x11a275,%eax
  1019f2:	83 c8 80             	or     $0xffffff80,%eax
  1019f5:	a2 75 a2 11 00       	mov    %al,0x11a275
  1019fa:	b8 0e 28 10 00       	mov    $0x10280e,%eax
  1019ff:	c1 e8 10             	shr    $0x10,%eax
  101a02:	66 a3 76 a2 11 00    	mov    %ax,0x11a276
	SETGATE(idt[11], 0, CPU_GDT_KCODE, &tv11, 0);
  101a08:	b8 16 28 10 00       	mov    $0x102816,%eax
  101a0d:	66 a3 78 a2 11 00    	mov    %ax,0x11a278
  101a13:	66 c7 05 7a a2 11 00 	movw   $0x8,0x11a27a
  101a1a:	08 00 
  101a1c:	0f b6 05 7c a2 11 00 	movzbl 0x11a27c,%eax
  101a23:	83 e0 e0             	and    $0xffffffe0,%eax
  101a26:	a2 7c a2 11 00       	mov    %al,0x11a27c
  101a2b:	0f b6 05 7c a2 11 00 	movzbl 0x11a27c,%eax
  101a32:	83 e0 1f             	and    $0x1f,%eax
  101a35:	a2 7c a2 11 00       	mov    %al,0x11a27c
  101a3a:	0f b6 05 7d a2 11 00 	movzbl 0x11a27d,%eax
  101a41:	83 e0 f0             	and    $0xfffffff0,%eax
  101a44:	83 c8 0e             	or     $0xe,%eax
  101a47:	a2 7d a2 11 00       	mov    %al,0x11a27d
  101a4c:	0f b6 05 7d a2 11 00 	movzbl 0x11a27d,%eax
  101a53:	83 e0 ef             	and    $0xffffffef,%eax
  101a56:	a2 7d a2 11 00       	mov    %al,0x11a27d
  101a5b:	0f b6 05 7d a2 11 00 	movzbl 0x11a27d,%eax
  101a62:	83 e0 9f             	and    $0xffffff9f,%eax
  101a65:	a2 7d a2 11 00       	mov    %al,0x11a27d
  101a6a:	0f b6 05 7d a2 11 00 	movzbl 0x11a27d,%eax
  101a71:	83 c8 80             	or     $0xffffff80,%eax
  101a74:	a2 7d a2 11 00       	mov    %al,0x11a27d
  101a79:	b8 16 28 10 00       	mov    $0x102816,%eax
  101a7e:	c1 e8 10             	shr    $0x10,%eax
  101a81:	66 a3 7e a2 11 00    	mov    %ax,0x11a27e
	SETGATE(idt[12], 0, CPU_GDT_KCODE, &tv12, 0);
  101a87:	b8 1e 28 10 00       	mov    $0x10281e,%eax
  101a8c:	66 a3 80 a2 11 00    	mov    %ax,0x11a280
  101a92:	66 c7 05 82 a2 11 00 	movw   $0x8,0x11a282
  101a99:	08 00 
  101a9b:	0f b6 05 84 a2 11 00 	movzbl 0x11a284,%eax
  101aa2:	83 e0 e0             	and    $0xffffffe0,%eax
  101aa5:	a2 84 a2 11 00       	mov    %al,0x11a284
  101aaa:	0f b6 05 84 a2 11 00 	movzbl 0x11a284,%eax
  101ab1:	83 e0 1f             	and    $0x1f,%eax
  101ab4:	a2 84 a2 11 00       	mov    %al,0x11a284
  101ab9:	0f b6 05 85 a2 11 00 	movzbl 0x11a285,%eax
  101ac0:	83 e0 f0             	and    $0xfffffff0,%eax
  101ac3:	83 c8 0e             	or     $0xe,%eax
  101ac6:	a2 85 a2 11 00       	mov    %al,0x11a285
  101acb:	0f b6 05 85 a2 11 00 	movzbl 0x11a285,%eax
  101ad2:	83 e0 ef             	and    $0xffffffef,%eax
  101ad5:	a2 85 a2 11 00       	mov    %al,0x11a285
  101ada:	0f b6 05 85 a2 11 00 	movzbl 0x11a285,%eax
  101ae1:	83 e0 9f             	and    $0xffffff9f,%eax
  101ae4:	a2 85 a2 11 00       	mov    %al,0x11a285
  101ae9:	0f b6 05 85 a2 11 00 	movzbl 0x11a285,%eax
  101af0:	83 c8 80             	or     $0xffffff80,%eax
  101af3:	a2 85 a2 11 00       	mov    %al,0x11a285
  101af8:	b8 1e 28 10 00       	mov    $0x10281e,%eax
  101afd:	c1 e8 10             	shr    $0x10,%eax
  101b00:	66 a3 86 a2 11 00    	mov    %ax,0x11a286
	SETGATE(idt[13], 0, CPU_GDT_KCODE, &tv13, 0);
  101b06:	b8 26 28 10 00       	mov    $0x102826,%eax
  101b0b:	66 a3 88 a2 11 00    	mov    %ax,0x11a288
  101b11:	66 c7 05 8a a2 11 00 	movw   $0x8,0x11a28a
  101b18:	08 00 
  101b1a:	0f b6 05 8c a2 11 00 	movzbl 0x11a28c,%eax
  101b21:	83 e0 e0             	and    $0xffffffe0,%eax
  101b24:	a2 8c a2 11 00       	mov    %al,0x11a28c
  101b29:	0f b6 05 8c a2 11 00 	movzbl 0x11a28c,%eax
  101b30:	83 e0 1f             	and    $0x1f,%eax
  101b33:	a2 8c a2 11 00       	mov    %al,0x11a28c
  101b38:	0f b6 05 8d a2 11 00 	movzbl 0x11a28d,%eax
  101b3f:	83 e0 f0             	and    $0xfffffff0,%eax
  101b42:	83 c8 0e             	or     $0xe,%eax
  101b45:	a2 8d a2 11 00       	mov    %al,0x11a28d
  101b4a:	0f b6 05 8d a2 11 00 	movzbl 0x11a28d,%eax
  101b51:	83 e0 ef             	and    $0xffffffef,%eax
  101b54:	a2 8d a2 11 00       	mov    %al,0x11a28d
  101b59:	0f b6 05 8d a2 11 00 	movzbl 0x11a28d,%eax
  101b60:	83 e0 9f             	and    $0xffffff9f,%eax
  101b63:	a2 8d a2 11 00       	mov    %al,0x11a28d
  101b68:	0f b6 05 8d a2 11 00 	movzbl 0x11a28d,%eax
  101b6f:	83 c8 80             	or     $0xffffff80,%eax
  101b72:	a2 8d a2 11 00       	mov    %al,0x11a28d
  101b77:	b8 26 28 10 00       	mov    $0x102826,%eax
  101b7c:	c1 e8 10             	shr    $0x10,%eax
  101b7f:	66 a3 8e a2 11 00    	mov    %ax,0x11a28e
	SETGATE(idt[14], 0, CPU_GDT_KCODE, &tv14, 0);
  101b85:	b8 2e 28 10 00       	mov    $0x10282e,%eax
  101b8a:	66 a3 90 a2 11 00    	mov    %ax,0x11a290
  101b90:	66 c7 05 92 a2 11 00 	movw   $0x8,0x11a292
  101b97:	08 00 
  101b99:	0f b6 05 94 a2 11 00 	movzbl 0x11a294,%eax
  101ba0:	83 e0 e0             	and    $0xffffffe0,%eax
  101ba3:	a2 94 a2 11 00       	mov    %al,0x11a294
  101ba8:	0f b6 05 94 a2 11 00 	movzbl 0x11a294,%eax
  101baf:	83 e0 1f             	and    $0x1f,%eax
  101bb2:	a2 94 a2 11 00       	mov    %al,0x11a294
  101bb7:	0f b6 05 95 a2 11 00 	movzbl 0x11a295,%eax
  101bbe:	83 e0 f0             	and    $0xfffffff0,%eax
  101bc1:	83 c8 0e             	or     $0xe,%eax
  101bc4:	a2 95 a2 11 00       	mov    %al,0x11a295
  101bc9:	0f b6 05 95 a2 11 00 	movzbl 0x11a295,%eax
  101bd0:	83 e0 ef             	and    $0xffffffef,%eax
  101bd3:	a2 95 a2 11 00       	mov    %al,0x11a295
  101bd8:	0f b6 05 95 a2 11 00 	movzbl 0x11a295,%eax
  101bdf:	83 e0 9f             	and    $0xffffff9f,%eax
  101be2:	a2 95 a2 11 00       	mov    %al,0x11a295
  101be7:	0f b6 05 95 a2 11 00 	movzbl 0x11a295,%eax
  101bee:	83 c8 80             	or     $0xffffff80,%eax
  101bf1:	a2 95 a2 11 00       	mov    %al,0x11a295
  101bf6:	b8 2e 28 10 00       	mov    $0x10282e,%eax
  101bfb:	c1 e8 10             	shr    $0x10,%eax
  101bfe:	66 a3 96 a2 11 00    	mov    %ax,0x11a296
	SETGATE(idt[16], 0, CPU_GDT_KCODE, &tv16, 0);
  101c04:	b8 36 28 10 00       	mov    $0x102836,%eax
  101c09:	66 a3 a0 a2 11 00    	mov    %ax,0x11a2a0
  101c0f:	66 c7 05 a2 a2 11 00 	movw   $0x8,0x11a2a2
  101c16:	08 00 
  101c18:	0f b6 05 a4 a2 11 00 	movzbl 0x11a2a4,%eax
  101c1f:	83 e0 e0             	and    $0xffffffe0,%eax
  101c22:	a2 a4 a2 11 00       	mov    %al,0x11a2a4
  101c27:	0f b6 05 a4 a2 11 00 	movzbl 0x11a2a4,%eax
  101c2e:	83 e0 1f             	and    $0x1f,%eax
  101c31:	a2 a4 a2 11 00       	mov    %al,0x11a2a4
  101c36:	0f b6 05 a5 a2 11 00 	movzbl 0x11a2a5,%eax
  101c3d:	83 e0 f0             	and    $0xfffffff0,%eax
  101c40:	83 c8 0e             	or     $0xe,%eax
  101c43:	a2 a5 a2 11 00       	mov    %al,0x11a2a5
  101c48:	0f b6 05 a5 a2 11 00 	movzbl 0x11a2a5,%eax
  101c4f:	83 e0 ef             	and    $0xffffffef,%eax
  101c52:	a2 a5 a2 11 00       	mov    %al,0x11a2a5
  101c57:	0f b6 05 a5 a2 11 00 	movzbl 0x11a2a5,%eax
  101c5e:	83 e0 9f             	and    $0xffffff9f,%eax
  101c61:	a2 a5 a2 11 00       	mov    %al,0x11a2a5
  101c66:	0f b6 05 a5 a2 11 00 	movzbl 0x11a2a5,%eax
  101c6d:	83 c8 80             	or     $0xffffff80,%eax
  101c70:	a2 a5 a2 11 00       	mov    %al,0x11a2a5
  101c75:	b8 36 28 10 00       	mov    $0x102836,%eax
  101c7a:	c1 e8 10             	shr    $0x10,%eax
  101c7d:	66 a3 a6 a2 11 00    	mov    %ax,0x11a2a6
	SETGATE(idt[17], 0, CPU_GDT_KCODE, &tv17, 0);
  101c83:	b8 40 28 10 00       	mov    $0x102840,%eax
  101c88:	66 a3 a8 a2 11 00    	mov    %ax,0x11a2a8
  101c8e:	66 c7 05 aa a2 11 00 	movw   $0x8,0x11a2aa
  101c95:	08 00 
  101c97:	0f b6 05 ac a2 11 00 	movzbl 0x11a2ac,%eax
  101c9e:	83 e0 e0             	and    $0xffffffe0,%eax
  101ca1:	a2 ac a2 11 00       	mov    %al,0x11a2ac
  101ca6:	0f b6 05 ac a2 11 00 	movzbl 0x11a2ac,%eax
  101cad:	83 e0 1f             	and    $0x1f,%eax
  101cb0:	a2 ac a2 11 00       	mov    %al,0x11a2ac
  101cb5:	0f b6 05 ad a2 11 00 	movzbl 0x11a2ad,%eax
  101cbc:	83 e0 f0             	and    $0xfffffff0,%eax
  101cbf:	83 c8 0e             	or     $0xe,%eax
  101cc2:	a2 ad a2 11 00       	mov    %al,0x11a2ad
  101cc7:	0f b6 05 ad a2 11 00 	movzbl 0x11a2ad,%eax
  101cce:	83 e0 ef             	and    $0xffffffef,%eax
  101cd1:	a2 ad a2 11 00       	mov    %al,0x11a2ad
  101cd6:	0f b6 05 ad a2 11 00 	movzbl 0x11a2ad,%eax
  101cdd:	83 e0 9f             	and    $0xffffff9f,%eax
  101ce0:	a2 ad a2 11 00       	mov    %al,0x11a2ad
  101ce5:	0f b6 05 ad a2 11 00 	movzbl 0x11a2ad,%eax
  101cec:	83 c8 80             	or     $0xffffff80,%eax
  101cef:	a2 ad a2 11 00       	mov    %al,0x11a2ad
  101cf4:	b8 40 28 10 00       	mov    $0x102840,%eax
  101cf9:	c1 e8 10             	shr    $0x10,%eax
  101cfc:	66 a3 ae a2 11 00    	mov    %ax,0x11a2ae
	SETGATE(idt[18], 0, CPU_GDT_KCODE, &tv18, 0);
  101d02:	b8 48 28 10 00       	mov    $0x102848,%eax
  101d07:	66 a3 b0 a2 11 00    	mov    %ax,0x11a2b0
  101d0d:	66 c7 05 b2 a2 11 00 	movw   $0x8,0x11a2b2
  101d14:	08 00 
  101d16:	0f b6 05 b4 a2 11 00 	movzbl 0x11a2b4,%eax
  101d1d:	83 e0 e0             	and    $0xffffffe0,%eax
  101d20:	a2 b4 a2 11 00       	mov    %al,0x11a2b4
  101d25:	0f b6 05 b4 a2 11 00 	movzbl 0x11a2b4,%eax
  101d2c:	83 e0 1f             	and    $0x1f,%eax
  101d2f:	a2 b4 a2 11 00       	mov    %al,0x11a2b4
  101d34:	0f b6 05 b5 a2 11 00 	movzbl 0x11a2b5,%eax
  101d3b:	83 e0 f0             	and    $0xfffffff0,%eax
  101d3e:	83 c8 0e             	or     $0xe,%eax
  101d41:	a2 b5 a2 11 00       	mov    %al,0x11a2b5
  101d46:	0f b6 05 b5 a2 11 00 	movzbl 0x11a2b5,%eax
  101d4d:	83 e0 ef             	and    $0xffffffef,%eax
  101d50:	a2 b5 a2 11 00       	mov    %al,0x11a2b5
  101d55:	0f b6 05 b5 a2 11 00 	movzbl 0x11a2b5,%eax
  101d5c:	83 e0 9f             	and    $0xffffff9f,%eax
  101d5f:	a2 b5 a2 11 00       	mov    %al,0x11a2b5
  101d64:	0f b6 05 b5 a2 11 00 	movzbl 0x11a2b5,%eax
  101d6b:	83 c8 80             	or     $0xffffff80,%eax
  101d6e:	a2 b5 a2 11 00       	mov    %al,0x11a2b5
  101d73:	b8 48 28 10 00       	mov    $0x102848,%eax
  101d78:	c1 e8 10             	shr    $0x10,%eax
  101d7b:	66 a3 b6 a2 11 00    	mov    %ax,0x11a2b6
	SETGATE(idt[19], 0, CPU_GDT_KCODE, &tv19, 0);
  101d81:	b8 52 28 10 00       	mov    $0x102852,%eax
  101d86:	66 a3 b8 a2 11 00    	mov    %ax,0x11a2b8
  101d8c:	66 c7 05 ba a2 11 00 	movw   $0x8,0x11a2ba
  101d93:	08 00 
  101d95:	0f b6 05 bc a2 11 00 	movzbl 0x11a2bc,%eax
  101d9c:	83 e0 e0             	and    $0xffffffe0,%eax
  101d9f:	a2 bc a2 11 00       	mov    %al,0x11a2bc
  101da4:	0f b6 05 bc a2 11 00 	movzbl 0x11a2bc,%eax
  101dab:	83 e0 1f             	and    $0x1f,%eax
  101dae:	a2 bc a2 11 00       	mov    %al,0x11a2bc
  101db3:	0f b6 05 bd a2 11 00 	movzbl 0x11a2bd,%eax
  101dba:	83 e0 f0             	and    $0xfffffff0,%eax
  101dbd:	83 c8 0e             	or     $0xe,%eax
  101dc0:	a2 bd a2 11 00       	mov    %al,0x11a2bd
  101dc5:	0f b6 05 bd a2 11 00 	movzbl 0x11a2bd,%eax
  101dcc:	83 e0 ef             	and    $0xffffffef,%eax
  101dcf:	a2 bd a2 11 00       	mov    %al,0x11a2bd
  101dd4:	0f b6 05 bd a2 11 00 	movzbl 0x11a2bd,%eax
  101ddb:	83 e0 9f             	and    $0xffffff9f,%eax
  101dde:	a2 bd a2 11 00       	mov    %al,0x11a2bd
  101de3:	0f b6 05 bd a2 11 00 	movzbl 0x11a2bd,%eax
  101dea:	83 c8 80             	or     $0xffffff80,%eax
  101ded:	a2 bd a2 11 00       	mov    %al,0x11a2bd
  101df2:	b8 52 28 10 00       	mov    $0x102852,%eax
  101df7:	c1 e8 10             	shr    $0x10,%eax
  101dfa:	66 a3 be a2 11 00    	mov    %ax,0x11a2be
	SETGATE(idt[30], 0, CPU_GDT_KCODE, &tv30, 0);
  101e00:	b8 5c 28 10 00       	mov    $0x10285c,%eax
  101e05:	66 a3 10 a3 11 00    	mov    %ax,0x11a310
  101e0b:	66 c7 05 12 a3 11 00 	movw   $0x8,0x11a312
  101e12:	08 00 
  101e14:	0f b6 05 14 a3 11 00 	movzbl 0x11a314,%eax
  101e1b:	83 e0 e0             	and    $0xffffffe0,%eax
  101e1e:	a2 14 a3 11 00       	mov    %al,0x11a314
  101e23:	0f b6 05 14 a3 11 00 	movzbl 0x11a314,%eax
  101e2a:	83 e0 1f             	and    $0x1f,%eax
  101e2d:	a2 14 a3 11 00       	mov    %al,0x11a314
  101e32:	0f b6 05 15 a3 11 00 	movzbl 0x11a315,%eax
  101e39:	83 e0 f0             	and    $0xfffffff0,%eax
  101e3c:	83 c8 0e             	or     $0xe,%eax
  101e3f:	a2 15 a3 11 00       	mov    %al,0x11a315
  101e44:	0f b6 05 15 a3 11 00 	movzbl 0x11a315,%eax
  101e4b:	83 e0 ef             	and    $0xffffffef,%eax
  101e4e:	a2 15 a3 11 00       	mov    %al,0x11a315
  101e53:	0f b6 05 15 a3 11 00 	movzbl 0x11a315,%eax
  101e5a:	83 e0 9f             	and    $0xffffff9f,%eax
  101e5d:	a2 15 a3 11 00       	mov    %al,0x11a315
  101e62:	0f b6 05 15 a3 11 00 	movzbl 0x11a315,%eax
  101e69:	83 c8 80             	or     $0xffffff80,%eax
  101e6c:	a2 15 a3 11 00       	mov    %al,0x11a315
  101e71:	b8 5c 28 10 00       	mov    $0x10285c,%eax
  101e76:	c1 e8 10             	shr    $0x10,%eax
  101e79:	66 a3 16 a3 11 00    	mov    %ax,0x11a316
	SETGATE(idt[T_IRQ0 + IRQ_TIMER], 0, CPU_GDT_KCODE, &tv32, 0);
  101e7f:	b8 66 28 10 00       	mov    $0x102866,%eax
  101e84:	66 a3 20 a3 11 00    	mov    %ax,0x11a320
  101e8a:	66 c7 05 22 a3 11 00 	movw   $0x8,0x11a322
  101e91:	08 00 
  101e93:	0f b6 05 24 a3 11 00 	movzbl 0x11a324,%eax
  101e9a:	83 e0 e0             	and    $0xffffffe0,%eax
  101e9d:	a2 24 a3 11 00       	mov    %al,0x11a324
  101ea2:	0f b6 05 24 a3 11 00 	movzbl 0x11a324,%eax
  101ea9:	83 e0 1f             	and    $0x1f,%eax
  101eac:	a2 24 a3 11 00       	mov    %al,0x11a324
  101eb1:	0f b6 05 25 a3 11 00 	movzbl 0x11a325,%eax
  101eb8:	83 e0 f0             	and    $0xfffffff0,%eax
  101ebb:	83 c8 0e             	or     $0xe,%eax
  101ebe:	a2 25 a3 11 00       	mov    %al,0x11a325
  101ec3:	0f b6 05 25 a3 11 00 	movzbl 0x11a325,%eax
  101eca:	83 e0 ef             	and    $0xffffffef,%eax
  101ecd:	a2 25 a3 11 00       	mov    %al,0x11a325
  101ed2:	0f b6 05 25 a3 11 00 	movzbl 0x11a325,%eax
  101ed9:	83 e0 9f             	and    $0xffffff9f,%eax
  101edc:	a2 25 a3 11 00       	mov    %al,0x11a325
  101ee1:	0f b6 05 25 a3 11 00 	movzbl 0x11a325,%eax
  101ee8:	83 c8 80             	or     $0xffffff80,%eax
  101eeb:	a2 25 a3 11 00       	mov    %al,0x11a325
  101ef0:	b8 66 28 10 00       	mov    $0x102866,%eax
  101ef5:	c1 e8 10             	shr    $0x10,%eax
  101ef8:	66 a3 26 a3 11 00    	mov    %ax,0x11a326
	SETGATE(idt[T_IRQ0 + IRQ_SPURIOUS], 0, CPU_GDT_KCODE, &tv39, 0);
  101efe:	b8 70 28 10 00       	mov    $0x102870,%eax
  101f03:	66 a3 58 a3 11 00    	mov    %ax,0x11a358
  101f09:	66 c7 05 5a a3 11 00 	movw   $0x8,0x11a35a
  101f10:	08 00 
  101f12:	0f b6 05 5c a3 11 00 	movzbl 0x11a35c,%eax
  101f19:	83 e0 e0             	and    $0xffffffe0,%eax
  101f1c:	a2 5c a3 11 00       	mov    %al,0x11a35c
  101f21:	0f b6 05 5c a3 11 00 	movzbl 0x11a35c,%eax
  101f28:	83 e0 1f             	and    $0x1f,%eax
  101f2b:	a2 5c a3 11 00       	mov    %al,0x11a35c
  101f30:	0f b6 05 5d a3 11 00 	movzbl 0x11a35d,%eax
  101f37:	83 e0 f0             	and    $0xfffffff0,%eax
  101f3a:	83 c8 0e             	or     $0xe,%eax
  101f3d:	a2 5d a3 11 00       	mov    %al,0x11a35d
  101f42:	0f b6 05 5d a3 11 00 	movzbl 0x11a35d,%eax
  101f49:	83 e0 ef             	and    $0xffffffef,%eax
  101f4c:	a2 5d a3 11 00       	mov    %al,0x11a35d
  101f51:	0f b6 05 5d a3 11 00 	movzbl 0x11a35d,%eax
  101f58:	83 e0 9f             	and    $0xffffff9f,%eax
  101f5b:	a2 5d a3 11 00       	mov    %al,0x11a35d
  101f60:	0f b6 05 5d a3 11 00 	movzbl 0x11a35d,%eax
  101f67:	83 c8 80             	or     $0xffffff80,%eax
  101f6a:	a2 5d a3 11 00       	mov    %al,0x11a35d
  101f6f:	b8 70 28 10 00       	mov    $0x102870,%eax
  101f74:	c1 e8 10             	shr    $0x10,%eax
  101f77:	66 a3 5e a3 11 00    	mov    %ax,0x11a35e
	SETGATE(idt[48], 0, CPU_GDT_KCODE, &tv48, 3);
  101f7d:	b8 7a 28 10 00       	mov    $0x10287a,%eax
  101f82:	66 a3 a0 a3 11 00    	mov    %ax,0x11a3a0
  101f88:	66 c7 05 a2 a3 11 00 	movw   $0x8,0x11a3a2
  101f8f:	08 00 
  101f91:	0f b6 05 a4 a3 11 00 	movzbl 0x11a3a4,%eax
  101f98:	83 e0 e0             	and    $0xffffffe0,%eax
  101f9b:	a2 a4 a3 11 00       	mov    %al,0x11a3a4
  101fa0:	0f b6 05 a4 a3 11 00 	movzbl 0x11a3a4,%eax
  101fa7:	83 e0 1f             	and    $0x1f,%eax
  101faa:	a2 a4 a3 11 00       	mov    %al,0x11a3a4
  101faf:	0f b6 05 a5 a3 11 00 	movzbl 0x11a3a5,%eax
  101fb6:	83 e0 f0             	and    $0xfffffff0,%eax
  101fb9:	83 c8 0e             	or     $0xe,%eax
  101fbc:	a2 a5 a3 11 00       	mov    %al,0x11a3a5
  101fc1:	0f b6 05 a5 a3 11 00 	movzbl 0x11a3a5,%eax
  101fc8:	83 e0 ef             	and    $0xffffffef,%eax
  101fcb:	a2 a5 a3 11 00       	mov    %al,0x11a3a5
  101fd0:	0f b6 05 a5 a3 11 00 	movzbl 0x11a3a5,%eax
  101fd7:	83 c8 60             	or     $0x60,%eax
  101fda:	a2 a5 a3 11 00       	mov    %al,0x11a3a5
  101fdf:	0f b6 05 a5 a3 11 00 	movzbl 0x11a3a5,%eax
  101fe6:	83 c8 80             	or     $0xffffff80,%eax
  101fe9:	a2 a5 a3 11 00       	mov    %al,0x11a3a5
  101fee:	b8 7a 28 10 00       	mov    $0x10287a,%eax
  101ff3:	c1 e8 10             	shr    $0x10,%eax
  101ff6:	66 a3 a6 a3 11 00    	mov    %ax,0x11a3a6
	SETGATE(idt[49], 0, CPU_GDT_KCODE, &tv49, 0);
  101ffc:	b8 84 28 10 00       	mov    $0x102884,%eax
  102001:	66 a3 a8 a3 11 00    	mov    %ax,0x11a3a8
  102007:	66 c7 05 aa a3 11 00 	movw   $0x8,0x11a3aa
  10200e:	08 00 
  102010:	0f b6 05 ac a3 11 00 	movzbl 0x11a3ac,%eax
  102017:	83 e0 e0             	and    $0xffffffe0,%eax
  10201a:	a2 ac a3 11 00       	mov    %al,0x11a3ac
  10201f:	0f b6 05 ac a3 11 00 	movzbl 0x11a3ac,%eax
  102026:	83 e0 1f             	and    $0x1f,%eax
  102029:	a2 ac a3 11 00       	mov    %al,0x11a3ac
  10202e:	0f b6 05 ad a3 11 00 	movzbl 0x11a3ad,%eax
  102035:	83 e0 f0             	and    $0xfffffff0,%eax
  102038:	83 c8 0e             	or     $0xe,%eax
  10203b:	a2 ad a3 11 00       	mov    %al,0x11a3ad
  102040:	0f b6 05 ad a3 11 00 	movzbl 0x11a3ad,%eax
  102047:	83 e0 ef             	and    $0xffffffef,%eax
  10204a:	a2 ad a3 11 00       	mov    %al,0x11a3ad
  10204f:	0f b6 05 ad a3 11 00 	movzbl 0x11a3ad,%eax
  102056:	83 e0 9f             	and    $0xffffff9f,%eax
  102059:	a2 ad a3 11 00       	mov    %al,0x11a3ad
  10205e:	0f b6 05 ad a3 11 00 	movzbl 0x11a3ad,%eax
  102065:	83 c8 80             	or     $0xffffff80,%eax
  102068:	a2 ad a3 11 00       	mov    %al,0x11a3ad
  10206d:	b8 84 28 10 00       	mov    $0x102884,%eax
  102072:	c1 e8 10             	shr    $0x10,%eax
  102075:	66 a3 ae a3 11 00    	mov    %ax,0x11a3ae
	SETGATE(idt[50], 0, CPU_GDT_KCODE, &tv50, 0);
  10207b:	b8 8e 28 10 00       	mov    $0x10288e,%eax
  102080:	66 a3 b0 a3 11 00    	mov    %ax,0x11a3b0
  102086:	66 c7 05 b2 a3 11 00 	movw   $0x8,0x11a3b2
  10208d:	08 00 
  10208f:	0f b6 05 b4 a3 11 00 	movzbl 0x11a3b4,%eax
  102096:	83 e0 e0             	and    $0xffffffe0,%eax
  102099:	a2 b4 a3 11 00       	mov    %al,0x11a3b4
  10209e:	0f b6 05 b4 a3 11 00 	movzbl 0x11a3b4,%eax
  1020a5:	83 e0 1f             	and    $0x1f,%eax
  1020a8:	a2 b4 a3 11 00       	mov    %al,0x11a3b4
  1020ad:	0f b6 05 b5 a3 11 00 	movzbl 0x11a3b5,%eax
  1020b4:	83 e0 f0             	and    $0xfffffff0,%eax
  1020b7:	83 c8 0e             	or     $0xe,%eax
  1020ba:	a2 b5 a3 11 00       	mov    %al,0x11a3b5
  1020bf:	0f b6 05 b5 a3 11 00 	movzbl 0x11a3b5,%eax
  1020c6:	83 e0 ef             	and    $0xffffffef,%eax
  1020c9:	a2 b5 a3 11 00       	mov    %al,0x11a3b5
  1020ce:	0f b6 05 b5 a3 11 00 	movzbl 0x11a3b5,%eax
  1020d5:	83 e0 9f             	and    $0xffffff9f,%eax
  1020d8:	a2 b5 a3 11 00       	mov    %al,0x11a3b5
  1020dd:	0f b6 05 b5 a3 11 00 	movzbl 0x11a3b5,%eax
  1020e4:	83 c8 80             	or     $0xffffff80,%eax
  1020e7:	a2 b5 a3 11 00       	mov    %al,0x11a3b5
  1020ec:	b8 8e 28 10 00       	mov    $0x10288e,%eax
  1020f1:	c1 e8 10             	shr    $0x10,%eax
  1020f4:	66 a3 b6 a3 11 00    	mov    %ax,0x11a3b6
}
  1020fa:	c9                   	leave  
  1020fb:	c3                   	ret    

001020fc <trap_init>:

void
trap_init(void)
{
  1020fc:	55                   	push   %ebp
  1020fd:	89 e5                	mov    %esp,%ebp
  1020ff:	83 ec 08             	sub    $0x8,%esp
	// The first time we get called on the bootstrap processor,
	// initialize the IDT.  Other CPUs will share the same IDT.
	if (cpu_onboot())
  102102:	e8 60 f4 ff ff       	call   101567 <cpu_onboot>
  102107:	85 c0                	test   %eax,%eax
  102109:	74 05                	je     102110 <trap_init+0x14>
		trap_init_idt();
  10210b:	e8 6f f4 ff ff       	call   10157f <trap_init_idt>

	// Load the IDT into this processor's IDT register.
	asm volatile("lidt %0" : : "m" (idt_pd));
  102110:	0f 01 1d 04 c0 10 00 	lidtl  0x10c004

	// Check for the correct IDT and trap handler operation.
	if (cpu_onboot())
  102117:	e8 4b f4 ff ff       	call   101567 <cpu_onboot>
  10211c:	85 c0                	test   %eax,%eax
  10211e:	74 05                	je     102125 <trap_init+0x29>
		trap_check_kernel();
  102120:	e8 6c 03 00 00       	call   102491 <trap_check_kernel>
}
  102125:	c9                   	leave  
  102126:	c3                   	ret    

00102127 <trap_name>:

const char *trap_name(int trapno)
{
  102127:	55                   	push   %ebp
  102128:	89 e5                	mov    %esp,%ebp
		"Alignment Check",
		"Machine-Check",
		"SIMD Floating-Point Exception"
	};

	if (trapno < sizeof(excnames)/sizeof(excnames[0]))
  10212a:	8b 45 08             	mov    0x8(%ebp),%eax
  10212d:	83 f8 13             	cmp    $0x13,%eax
  102130:	77 0c                	ja     10213e <trap_name+0x17>
		return excnames[trapno];
  102132:	8b 45 08             	mov    0x8(%ebp),%eax
  102135:	8b 04 85 20 8c 10 00 	mov    0x108c20(,%eax,4),%eax
  10213c:	eb 25                	jmp    102163 <trap_name+0x3c>
	if (trapno == T_SYSCALL)
  10213e:	83 7d 08 30          	cmpl   $0x30,0x8(%ebp)
  102142:	75 07                	jne    10214b <trap_name+0x24>
		return "System call";
  102144:	b8 4a 88 10 00       	mov    $0x10884a,%eax
  102149:	eb 18                	jmp    102163 <trap_name+0x3c>
	if (trapno >= T_IRQ0 && trapno < T_IRQ0 + 16)
  10214b:	83 7d 08 1f          	cmpl   $0x1f,0x8(%ebp)
  10214f:	7e 0d                	jle    10215e <trap_name+0x37>
  102151:	83 7d 08 2f          	cmpl   $0x2f,0x8(%ebp)
  102155:	7f 07                	jg     10215e <trap_name+0x37>
		return "Hardware Interrupt";
  102157:	b8 56 88 10 00       	mov    $0x108856,%eax
  10215c:	eb 05                	jmp    102163 <trap_name+0x3c>
	return "(unknown trap)";
  10215e:	b8 69 88 10 00       	mov    $0x108869,%eax
}
  102163:	5d                   	pop    %ebp
  102164:	c3                   	ret    

00102165 <trap_print_regs>:

void
trap_print_regs(pushregs *regs)
{
  102165:	55                   	push   %ebp
  102166:	89 e5                	mov    %esp,%ebp
  102168:	83 ec 18             	sub    $0x18,%esp
	cprintf("  edi  0x%08x\n", regs->edi);
  10216b:	8b 45 08             	mov    0x8(%ebp),%eax
  10216e:	8b 00                	mov    (%eax),%eax
  102170:	89 44 24 04          	mov    %eax,0x4(%esp)
  102174:	c7 04 24 78 88 10 00 	movl   $0x108878,(%esp)
  10217b:	e8 fd 5a 00 00       	call   107c7d <cprintf>
	cprintf("  esi  0x%08x\n", regs->esi);
  102180:	8b 45 08             	mov    0x8(%ebp),%eax
  102183:	8b 40 04             	mov    0x4(%eax),%eax
  102186:	89 44 24 04          	mov    %eax,0x4(%esp)
  10218a:	c7 04 24 87 88 10 00 	movl   $0x108887,(%esp)
  102191:	e8 e7 5a 00 00       	call   107c7d <cprintf>
	cprintf("  ebp  0x%08x\n", regs->ebp);
  102196:	8b 45 08             	mov    0x8(%ebp),%eax
  102199:	8b 40 08             	mov    0x8(%eax),%eax
  10219c:	89 44 24 04          	mov    %eax,0x4(%esp)
  1021a0:	c7 04 24 96 88 10 00 	movl   $0x108896,(%esp)
  1021a7:	e8 d1 5a 00 00       	call   107c7d <cprintf>
//	cprintf("  oesp 0x%08x\n", regs->oesp);	don't print - useless
	cprintf("  ebx  0x%08x\n", regs->ebx);
  1021ac:	8b 45 08             	mov    0x8(%ebp),%eax
  1021af:	8b 40 10             	mov    0x10(%eax),%eax
  1021b2:	89 44 24 04          	mov    %eax,0x4(%esp)
  1021b6:	c7 04 24 a5 88 10 00 	movl   $0x1088a5,(%esp)
  1021bd:	e8 bb 5a 00 00       	call   107c7d <cprintf>
	cprintf("  edx  0x%08x\n", regs->edx);
  1021c2:	8b 45 08             	mov    0x8(%ebp),%eax
  1021c5:	8b 40 14             	mov    0x14(%eax),%eax
  1021c8:	89 44 24 04          	mov    %eax,0x4(%esp)
  1021cc:	c7 04 24 b4 88 10 00 	movl   $0x1088b4,(%esp)
  1021d3:	e8 a5 5a 00 00       	call   107c7d <cprintf>
	cprintf("  ecx  0x%08x\n", regs->ecx);
  1021d8:	8b 45 08             	mov    0x8(%ebp),%eax
  1021db:	8b 40 18             	mov    0x18(%eax),%eax
  1021de:	89 44 24 04          	mov    %eax,0x4(%esp)
  1021e2:	c7 04 24 c3 88 10 00 	movl   $0x1088c3,(%esp)
  1021e9:	e8 8f 5a 00 00       	call   107c7d <cprintf>
	cprintf("  eax  0x%08x\n", regs->eax);
  1021ee:	8b 45 08             	mov    0x8(%ebp),%eax
  1021f1:	8b 40 1c             	mov    0x1c(%eax),%eax
  1021f4:	89 44 24 04          	mov    %eax,0x4(%esp)
  1021f8:	c7 04 24 d2 88 10 00 	movl   $0x1088d2,(%esp)
  1021ff:	e8 79 5a 00 00       	call   107c7d <cprintf>
}
  102204:	c9                   	leave  
  102205:	c3                   	ret    

00102206 <trap_print>:

void
trap_print(trapframe *tf)
{
  102206:	55                   	push   %ebp
  102207:	89 e5                	mov    %esp,%ebp
  102209:	83 ec 18             	sub    $0x18,%esp
	cprintf("TRAP frame at %p\n", tf);
  10220c:	8b 45 08             	mov    0x8(%ebp),%eax
  10220f:	89 44 24 04          	mov    %eax,0x4(%esp)
  102213:	c7 04 24 e1 88 10 00 	movl   $0x1088e1,(%esp)
  10221a:	e8 5e 5a 00 00       	call   107c7d <cprintf>
	trap_print_regs(&tf->regs);
  10221f:	8b 45 08             	mov    0x8(%ebp),%eax
  102222:	89 04 24             	mov    %eax,(%esp)
  102225:	e8 3b ff ff ff       	call   102165 <trap_print_regs>
	cprintf("  es   0x----%04x\n", tf->es);
  10222a:	8b 45 08             	mov    0x8(%ebp),%eax
  10222d:	0f b7 40 28          	movzwl 0x28(%eax),%eax
  102231:	0f b7 c0             	movzwl %ax,%eax
  102234:	89 44 24 04          	mov    %eax,0x4(%esp)
  102238:	c7 04 24 f3 88 10 00 	movl   $0x1088f3,(%esp)
  10223f:	e8 39 5a 00 00       	call   107c7d <cprintf>
	cprintf("  ds   0x----%04x\n", tf->ds);
  102244:	8b 45 08             	mov    0x8(%ebp),%eax
  102247:	0f b7 40 2c          	movzwl 0x2c(%eax),%eax
  10224b:	0f b7 c0             	movzwl %ax,%eax
  10224e:	89 44 24 04          	mov    %eax,0x4(%esp)
  102252:	c7 04 24 06 89 10 00 	movl   $0x108906,(%esp)
  102259:	e8 1f 5a 00 00       	call   107c7d <cprintf>
	cprintf("  trap 0x%08x %s\n", tf->trapno, trap_name(tf->trapno));
  10225e:	8b 45 08             	mov    0x8(%ebp),%eax
  102261:	8b 40 30             	mov    0x30(%eax),%eax
  102264:	89 04 24             	mov    %eax,(%esp)
  102267:	e8 bb fe ff ff       	call   102127 <trap_name>
  10226c:	8b 55 08             	mov    0x8(%ebp),%edx
  10226f:	8b 52 30             	mov    0x30(%edx),%edx
  102272:	89 44 24 08          	mov    %eax,0x8(%esp)
  102276:	89 54 24 04          	mov    %edx,0x4(%esp)
  10227a:	c7 04 24 19 89 10 00 	movl   $0x108919,(%esp)
  102281:	e8 f7 59 00 00       	call   107c7d <cprintf>
	cprintf("  err  0x%08x\n", tf->err);
  102286:	8b 45 08             	mov    0x8(%ebp),%eax
  102289:	8b 40 34             	mov    0x34(%eax),%eax
  10228c:	89 44 24 04          	mov    %eax,0x4(%esp)
  102290:	c7 04 24 2b 89 10 00 	movl   $0x10892b,(%esp)
  102297:	e8 e1 59 00 00       	call   107c7d <cprintf>
	cprintf("  eip  0x%08x\n", tf->eip);
  10229c:	8b 45 08             	mov    0x8(%ebp),%eax
  10229f:	8b 40 38             	mov    0x38(%eax),%eax
  1022a2:	89 44 24 04          	mov    %eax,0x4(%esp)
  1022a6:	c7 04 24 3a 89 10 00 	movl   $0x10893a,(%esp)
  1022ad:	e8 cb 59 00 00       	call   107c7d <cprintf>
	cprintf("  cs   0x----%04x\n", tf->cs);
  1022b2:	8b 45 08             	mov    0x8(%ebp),%eax
  1022b5:	0f b7 40 3c          	movzwl 0x3c(%eax),%eax
  1022b9:	0f b7 c0             	movzwl %ax,%eax
  1022bc:	89 44 24 04          	mov    %eax,0x4(%esp)
  1022c0:	c7 04 24 49 89 10 00 	movl   $0x108949,(%esp)
  1022c7:	e8 b1 59 00 00       	call   107c7d <cprintf>
	cprintf("  flag 0x%08x\n", tf->eflags);
  1022cc:	8b 45 08             	mov    0x8(%ebp),%eax
  1022cf:	8b 40 40             	mov    0x40(%eax),%eax
  1022d2:	89 44 24 04          	mov    %eax,0x4(%esp)
  1022d6:	c7 04 24 5c 89 10 00 	movl   $0x10895c,(%esp)
  1022dd:	e8 9b 59 00 00       	call   107c7d <cprintf>
	cprintf("  esp  0x%08x\n", tf->esp);
  1022e2:	8b 45 08             	mov    0x8(%ebp),%eax
  1022e5:	8b 40 44             	mov    0x44(%eax),%eax
  1022e8:	89 44 24 04          	mov    %eax,0x4(%esp)
  1022ec:	c7 04 24 6b 89 10 00 	movl   $0x10896b,(%esp)
  1022f3:	e8 85 59 00 00       	call   107c7d <cprintf>
	cprintf("  ss   0x----%04x\n", tf->ss);
  1022f8:	8b 45 08             	mov    0x8(%ebp),%eax
  1022fb:	0f b7 40 48          	movzwl 0x48(%eax),%eax
  1022ff:	0f b7 c0             	movzwl %ax,%eax
  102302:	89 44 24 04          	mov    %eax,0x4(%esp)
  102306:	c7 04 24 7a 89 10 00 	movl   $0x10897a,(%esp)
  10230d:	e8 6b 59 00 00       	call   107c7d <cprintf>
}
  102312:	c9                   	leave  
  102313:	c3                   	ret    

00102314 <trap>:

void gcc_noreturn
trap(trapframe *tf)
{
  102314:	55                   	push   %ebp
  102315:	89 e5                	mov    %esp,%ebp
  102317:	83 ec 28             	sub    $0x28,%esp
	// The user-level environment may have set the DF flag,
	// and some versions of GCC rely on DF being clear.
	asm volatile("cld" ::: "cc");
  10231a:	fc                   	cld    

	// If this trap was anticipated, just use the designated handler.
	cpu *c = cpu_cur();
  10231b:	e8 f4 f1 ff ff       	call   101514 <cpu_cur>
  102320:	89 45 f4             	mov    %eax,-0xc(%ebp)
	// trap_print(tf);
	if (c->recover)
  102323:	8b 45 f4             	mov    -0xc(%ebp),%eax
  102326:	8b 80 a0 00 00 00    	mov    0xa0(%eax),%eax
  10232c:	85 c0                	test   %eax,%eax
  10232e:	74 1e                	je     10234e <trap+0x3a>
		c->recover(tf, c->recoverdata);
  102330:	8b 45 f4             	mov    -0xc(%ebp),%eax
  102333:	8b 90 a0 00 00 00    	mov    0xa0(%eax),%edx
  102339:	8b 45 f4             	mov    -0xc(%ebp),%eax
  10233c:	8b 80 a4 00 00 00    	mov    0xa4(%eax),%eax
  102342:	89 44 24 04          	mov    %eax,0x4(%esp)
  102346:	8b 45 08             	mov    0x8(%ebp),%eax
  102349:	89 04 24             	mov    %eax,(%esp)
  10234c:	ff d2                	call   *%edx

	// cprintf("cpu %d handling trap\n", c->id);

	// Lab 2: your trap handling code here!
	if(tf->trapno < T_IRQ0 && (tf->cs & 0x3)) {
  10234e:	8b 45 08             	mov    0x8(%ebp),%eax
  102351:	8b 40 30             	mov    0x30(%eax),%eax
  102354:	83 f8 1f             	cmp    $0x1f,%eax
  102357:	77 24                	ja     10237d <trap+0x69>
  102359:	8b 45 08             	mov    0x8(%ebp),%eax
  10235c:	0f b7 40 3c          	movzwl 0x3c(%eax),%eax
  102360:	0f b7 c0             	movzwl %ax,%eax
  102363:	83 e0 03             	and    $0x3,%eax
  102366:	85 c0                	test   %eax,%eax
  102368:	74 13                	je     10237d <trap+0x69>
		proc_ret(tf, -1);
  10236a:	c7 44 24 04 ff ff ff 	movl   $0xffffffff,0x4(%esp)
  102371:	ff 
  102372:	8b 45 08             	mov    0x8(%ebp),%eax
  102375:	89 04 24             	mov    %eax,(%esp)
  102378:	e8 14 16 00 00       	call   103991 <proc_ret>
	}

	if(tf->trapno == T_SYSCALL) syscall(tf);
  10237d:	8b 45 08             	mov    0x8(%ebp),%eax
  102380:	8b 40 30             	mov    0x30(%eax),%eax
  102383:	83 f8 30             	cmp    $0x30,%eax
  102386:	75 0b                	jne    102393 <trap+0x7f>
  102388:	8b 45 08             	mov    0x8(%ebp),%eax
  10238b:	89 04 24             	mov    %eax,(%esp)
  10238e:	e8 65 21 00 00       	call   1044f8 <syscall>

	if(tf->trapno == (T_LTIMER)) {
  102393:	8b 45 08             	mov    0x8(%ebp),%eax
  102396:	8b 40 30             	mov    0x30(%eax),%eax
  102399:	83 f8 31             	cmp    $0x31,%eax
  10239c:	75 10                	jne    1023ae <trap+0x9a>
		// cprintf("cpu %d timer\n", c->id);
		lapic_eoi();
  10239e:	e8 42 4e 00 00       	call   1071e5 <lapic_eoi>
		proc_yield(tf);
  1023a3:	8b 45 08             	mov    0x8(%ebp),%eax
  1023a6:	89 04 24             	mov    %eax,(%esp)
  1023a9:	e8 8f 15 00 00       	call   10393d <proc_yield>
	}
	if(tf->trapno == (T_IRQ0 + IRQ_SPURIOUS)) {
  1023ae:	8b 45 08             	mov    0x8(%ebp),%eax
  1023b1:	8b 40 30             	mov    0x30(%eax),%eax
  1023b4:	83 f8 27             	cmp    $0x27,%eax
  1023b7:	75 28                	jne    1023e1 <trap+0xcd>
		cprintf("cpu %d spurious timer\n", c->id);
  1023b9:	8b 45 f4             	mov    -0xc(%ebp),%eax
  1023bc:	0f b6 80 ac 00 00 00 	movzbl 0xac(%eax),%eax
  1023c3:	0f b6 c0             	movzbl %al,%eax
  1023c6:	89 44 24 04          	mov    %eax,0x4(%esp)
  1023ca:	c7 04 24 8d 89 10 00 	movl   $0x10898d,(%esp)
  1023d1:	e8 a7 58 00 00       	call   107c7d <cprintf>
		trap_return(tf);
  1023d6:	8b 45 08             	mov    0x8(%ebp),%eax
  1023d9:	89 04 24             	mov    %eax,(%esp)
  1023dc:	e8 ef 04 00 00       	call   1028d0 <trap_return>
	}
	if(tf->trapno == T_LERROR) {
  1023e1:	8b 45 08             	mov    0x8(%ebp),%eax
  1023e4:	8b 40 30             	mov    0x30(%eax),%eax
  1023e7:	83 f8 32             	cmp    $0x32,%eax
  1023ea:	75 10                	jne    1023fc <trap+0xe8>
		lapic_errintr();
  1023ec:	e8 19 4e 00 00       	call   10720a <lapic_errintr>
		trap_return(tf);
  1023f1:	8b 45 08             	mov    0x8(%ebp),%eax
  1023f4:	89 04 24             	mov    %eax,(%esp)
  1023f7:	e8 d4 04 00 00       	call   1028d0 <trap_return>
	}

	// If we panic while holding the console lock,
	// release it so we don't get into a recursive panic that way.
	if (spinlock_holding(&cons_lock))
  1023fc:	c7 04 24 a0 ec 11 00 	movl   $0x11eca0,(%esp)
  102403:	e8 5a 0a 00 00       	call   102e62 <spinlock_holding>
  102408:	85 c0                	test   %eax,%eax
  10240a:	74 0c                	je     102418 <trap+0x104>
		spinlock_release(&cons_lock);
  10240c:	c7 04 24 a0 ec 11 00 	movl   $0x11eca0,(%esp)
  102413:	e8 dc 09 00 00       	call   102df4 <spinlock_release>
	trap_print(tf);
  102418:	8b 45 08             	mov    0x8(%ebp),%eax
  10241b:	89 04 24             	mov    %eax,(%esp)
  10241e:	e8 e3 fd ff ff       	call   102206 <trap_print>
	panic("unhandled trap");
  102423:	c7 44 24 08 a4 89 10 	movl   $0x1089a4,0x8(%esp)
  10242a:	00 
  10242b:	c7 44 24 04 d6 00 00 	movl   $0xd6,0x4(%esp)
  102432:	00 
  102433:	c7 04 24 b3 89 10 00 	movl   $0x1089b3,(%esp)
  10243a:	e8 79 e0 ff ff       	call   1004b8 <debug_panic>

0010243f <trap_check_recover>:

// Helper function for trap_check_recover(), below:
// handles "anticipated" traps by simply resuming at a new EIP.
static void gcc_noreturn
trap_check_recover(trapframe *tf, void *recoverdata)
{
  10243f:	55                   	push   %ebp
  102440:	89 e5                	mov    %esp,%ebp
  102442:	83 ec 28             	sub    $0x28,%esp
	trap_check_args *args = recoverdata;
  102445:	8b 45 0c             	mov    0xc(%ebp),%eax
  102448:	89 45 f4             	mov    %eax,-0xc(%ebp)
	trap_print(tf);
  10244b:	8b 45 08             	mov    0x8(%ebp),%eax
  10244e:	89 04 24             	mov    %eax,(%esp)
  102451:	e8 b0 fd ff ff       	call   102206 <trap_print>
	cprintf("reip = %d\n", args->reip);
  102456:	8b 45 f4             	mov    -0xc(%ebp),%eax
  102459:	8b 00                	mov    (%eax),%eax
  10245b:	89 44 24 04          	mov    %eax,0x4(%esp)
  10245f:	c7 04 24 bf 89 10 00 	movl   $0x1089bf,(%esp)
  102466:	e8 12 58 00 00       	call   107c7d <cprintf>
	tf->eip = (uint32_t) args->reip;	// Use recovery EIP on return
  10246b:	8b 45 f4             	mov    -0xc(%ebp),%eax
  10246e:	8b 00                	mov    (%eax),%eax
  102470:	89 c2                	mov    %eax,%edx
  102472:	8b 45 08             	mov    0x8(%ebp),%eax
  102475:	89 50 38             	mov    %edx,0x38(%eax)
	args->trapno = tf->trapno;		// Return trap number
  102478:	8b 45 08             	mov    0x8(%ebp),%eax
  10247b:	8b 40 30             	mov    0x30(%eax),%eax
  10247e:	89 c2                	mov    %eax,%edx
  102480:	8b 45 f4             	mov    -0xc(%ebp),%eax
  102483:	89 50 04             	mov    %edx,0x4(%eax)
	trap_return(tf);
  102486:	8b 45 08             	mov    0x8(%ebp),%eax
  102489:	89 04 24             	mov    %eax,(%esp)
  10248c:	e8 3f 04 00 00       	call   1028d0 <trap_return>

00102491 <trap_check_kernel>:

// Check for correct handling of traps from kernel mode.
// Called on the boot CPU after trap_init() and trap_setup().
void
trap_check_kernel(void)
{
  102491:	55                   	push   %ebp
  102492:	89 e5                	mov    %esp,%ebp
  102494:	83 ec 28             	sub    $0x28,%esp

static gcc_inline uint16_t
read_cs(void)
{
        uint16_t cs;
        __asm __volatile("movw %%cs,%0" : "=rm" (cs));
  102497:	8c 4d f6             	mov    %cs,-0xa(%ebp)
        return cs;
  10249a:	0f b7 45 f6          	movzwl -0xa(%ebp),%eax
	assert((read_cs() & 3) == 0);	// better be in kernel mode!
  10249e:	0f b7 c0             	movzwl %ax,%eax
  1024a1:	83 e0 03             	and    $0x3,%eax
  1024a4:	85 c0                	test   %eax,%eax
  1024a6:	74 24                	je     1024cc <trap_check_kernel+0x3b>
  1024a8:	c7 44 24 0c ca 89 10 	movl   $0x1089ca,0xc(%esp)
  1024af:	00 
  1024b0:	c7 44 24 08 16 88 10 	movl   $0x108816,0x8(%esp)
  1024b7:	00 
  1024b8:	c7 44 24 04 ec 00 00 	movl   $0xec,0x4(%esp)
  1024bf:	00 
  1024c0:	c7 04 24 b3 89 10 00 	movl   $0x1089b3,(%esp)
  1024c7:	e8 ec df ff ff       	call   1004b8 <debug_panic>

	cpu *c = cpu_cur();
  1024cc:	e8 43 f0 ff ff       	call   101514 <cpu_cur>
  1024d1:	89 45 f0             	mov    %eax,-0x10(%ebp)
	c->recover = trap_check_recover;
  1024d4:	8b 45 f0             	mov    -0x10(%ebp),%eax
  1024d7:	c7 80 a0 00 00 00 3f 	movl   $0x10243f,0xa0(%eax)
  1024de:	24 10 00 
	trap_check(&c->recoverdata);
  1024e1:	8b 45 f0             	mov    -0x10(%ebp),%eax
  1024e4:	05 a4 00 00 00       	add    $0xa4,%eax
  1024e9:	89 04 24             	mov    %eax,(%esp)
  1024ec:	e8 96 00 00 00       	call   102587 <trap_check>
	c->recover = NULL;	// No more mr. nice-guy; traps are real again
  1024f1:	8b 45 f0             	mov    -0x10(%ebp),%eax
  1024f4:	c7 80 a0 00 00 00 00 	movl   $0x0,0xa0(%eax)
  1024fb:	00 00 00 

	cprintf("trap_check_kernel() succeeded!\n");
  1024fe:	c7 04 24 e0 89 10 00 	movl   $0x1089e0,(%esp)
  102505:	e8 73 57 00 00       	call   107c7d <cprintf>
}
  10250a:	c9                   	leave  
  10250b:	c3                   	ret    

0010250c <trap_check_user>:
// Called from user() in kern/init.c, only in lab 1.
// We assume the "current cpu" is always the boot cpu;
// this true only because lab 1 doesn't start any other CPUs.
void
trap_check_user(void)
{
  10250c:	55                   	push   %ebp
  10250d:	89 e5                	mov    %esp,%ebp
  10250f:	83 ec 28             	sub    $0x28,%esp

static gcc_inline uint16_t
read_cs(void)
{
        uint16_t cs;
        __asm __volatile("movw %%cs,%0" : "=rm" (cs));
  102512:	8c 4d f6             	mov    %cs,-0xa(%ebp)
        return cs;
  102515:	0f b7 45 f6          	movzwl -0xa(%ebp),%eax
	assert((read_cs() & 3) == 3);	// better be in user mode!
  102519:	0f b7 c0             	movzwl %ax,%eax
  10251c:	83 e0 03             	and    $0x3,%eax
  10251f:	83 f8 03             	cmp    $0x3,%eax
  102522:	74 24                	je     102548 <trap_check_user+0x3c>
  102524:	c7 44 24 0c 00 8a 10 	movl   $0x108a00,0xc(%esp)
  10252b:	00 
  10252c:	c7 44 24 08 16 88 10 	movl   $0x108816,0x8(%esp)
  102533:	00 
  102534:	c7 44 24 04 fd 00 00 	movl   $0xfd,0x4(%esp)
  10253b:	00 
  10253c:	c7 04 24 b3 89 10 00 	movl   $0x1089b3,(%esp)
  102543:	e8 70 df ff ff       	call   1004b8 <debug_panic>

	cpu *c = &cpu_boot;	// cpu_cur doesn't work from user mode!
  102548:	c7 45 f0 00 b0 10 00 	movl   $0x10b000,-0x10(%ebp)
	c->recover = trap_check_recover;
  10254f:	8b 45 f0             	mov    -0x10(%ebp),%eax
  102552:	c7 80 a0 00 00 00 3f 	movl   $0x10243f,0xa0(%eax)
  102559:	24 10 00 
	trap_check(&c->recoverdata);
  10255c:	8b 45 f0             	mov    -0x10(%ebp),%eax
  10255f:	05 a4 00 00 00       	add    $0xa4,%eax
  102564:	89 04 24             	mov    %eax,(%esp)
  102567:	e8 1b 00 00 00       	call   102587 <trap_check>
	c->recover = NULL;	// No more mr. nice-guy; traps are real again
  10256c:	8b 45 f0             	mov    -0x10(%ebp),%eax
  10256f:	c7 80 a0 00 00 00 00 	movl   $0x0,0xa0(%eax)
  102576:	00 00 00 

	cprintf("trap_check_user() succeeded!\n");
  102579:	c7 04 24 15 8a 10 00 	movl   $0x108a15,(%esp)
  102580:	e8 f8 56 00 00       	call   107c7d <cprintf>
}
  102585:	c9                   	leave  
  102586:	c3                   	ret    

00102587 <trap_check>:
void after_priv();

// Multi-purpose trap checking function.
void
trap_check(void **argsp)
{
  102587:	55                   	push   %ebp
  102588:	89 e5                	mov    %esp,%ebp
  10258a:	57                   	push   %edi
  10258b:	56                   	push   %esi
  10258c:	53                   	push   %ebx
  10258d:	83 ec 3c             	sub    $0x3c,%esp
	volatile int cookie = 0xfeedface;
  102590:	c7 45 e0 ce fa ed fe 	movl   $0xfeedface,-0x20(%ebp)
	volatile trap_check_args args;
	*argsp = (void*)&args;	// provide args needed for trap recovery
  102597:	8b 45 08             	mov    0x8(%ebp),%eax
  10259a:	8d 55 d8             	lea    -0x28(%ebp),%edx
  10259d:	89 10                	mov    %edx,(%eax)

	// Try a divide by zero trap.
	// Be careful when using && to take the address of a label:
	// some versions of GCC (4.4.2 at least) will incorrectly try to
	// eliminate code it thinks is _only_ reachable via such a pointer.
	args.reip = after_div0;
  10259f:	c7 45 d8 ad 25 10 00 	movl   $0x1025ad,-0x28(%ebp)
	asm volatile("div %0,%0; after_div0:" : : "r" (0));
  1025a6:	b8 00 00 00 00       	mov    $0x0,%eax
  1025ab:	f7 f0                	div    %eax

001025ad <after_div0>:
	assert(args.trapno == T_DIVIDE);
  1025ad:	8b 45 dc             	mov    -0x24(%ebp),%eax
  1025b0:	85 c0                	test   %eax,%eax
  1025b2:	74 24                	je     1025d8 <after_div0+0x2b>
  1025b4:	c7 44 24 0c 33 8a 10 	movl   $0x108a33,0xc(%esp)
  1025bb:	00 
  1025bc:	c7 44 24 08 16 88 10 	movl   $0x108816,0x8(%esp)
  1025c3:	00 
  1025c4:	c7 44 24 04 1d 01 00 	movl   $0x11d,0x4(%esp)
  1025cb:	00 
  1025cc:	c7 04 24 b3 89 10 00 	movl   $0x1089b3,(%esp)
  1025d3:	e8 e0 de ff ff       	call   1004b8 <debug_panic>

	// Make sure we got our correct stack back with us.
	// The asm ensures gcc uses ebp/esp to get the cookie.
	asm volatile("" : : : "eax","ebx","ecx","edx","esi","edi");
	assert(cookie == 0xfeedface);
  1025d8:	8b 45 e0             	mov    -0x20(%ebp),%eax
  1025db:	3d ce fa ed fe       	cmp    $0xfeedface,%eax
  1025e0:	74 24                	je     102606 <after_div0+0x59>
  1025e2:	c7 44 24 0c 4b 8a 10 	movl   $0x108a4b,0xc(%esp)
  1025e9:	00 
  1025ea:	c7 44 24 08 16 88 10 	movl   $0x108816,0x8(%esp)
  1025f1:	00 
  1025f2:	c7 44 24 04 22 01 00 	movl   $0x122,0x4(%esp)
  1025f9:	00 
  1025fa:	c7 04 24 b3 89 10 00 	movl   $0x1089b3,(%esp)
  102601:	e8 b2 de ff ff       	call   1004b8 <debug_panic>

	// Breakpoint trap
	args.reip = after_breakpoint;
  102606:	c7 45 d8 0e 26 10 00 	movl   $0x10260e,-0x28(%ebp)
	asm volatile("int3; after_breakpoint:");
  10260d:	cc                   	int3   

0010260e <after_breakpoint>:
	assert(args.trapno == T_BRKPT);
  10260e:	8b 45 dc             	mov    -0x24(%ebp),%eax
  102611:	83 f8 03             	cmp    $0x3,%eax
  102614:	74 24                	je     10263a <after_breakpoint+0x2c>
  102616:	c7 44 24 0c 60 8a 10 	movl   $0x108a60,0xc(%esp)
  10261d:	00 
  10261e:	c7 44 24 08 16 88 10 	movl   $0x108816,0x8(%esp)
  102625:	00 
  102626:	c7 44 24 04 27 01 00 	movl   $0x127,0x4(%esp)
  10262d:	00 
  10262e:	c7 04 24 b3 89 10 00 	movl   $0x1089b3,(%esp)
  102635:	e8 7e de ff ff       	call   1004b8 <debug_panic>

	// Overflow trap
	args.reip = after_overflow;
  10263a:	c7 45 d8 49 26 10 00 	movl   $0x102649,-0x28(%ebp)
	asm volatile("addl %0,%0; into; after_overflow:" : : "r" (0x70000000));
  102641:	b8 00 00 00 70       	mov    $0x70000000,%eax
  102646:	01 c0                	add    %eax,%eax
  102648:	ce                   	into   

00102649 <after_overflow>:
	assert(args.trapno == T_OFLOW);
  102649:	8b 45 dc             	mov    -0x24(%ebp),%eax
  10264c:	83 f8 04             	cmp    $0x4,%eax
  10264f:	74 24                	je     102675 <after_overflow+0x2c>
  102651:	c7 44 24 0c 77 8a 10 	movl   $0x108a77,0xc(%esp)
  102658:	00 
  102659:	c7 44 24 08 16 88 10 	movl   $0x108816,0x8(%esp)
  102660:	00 
  102661:	c7 44 24 04 2c 01 00 	movl   $0x12c,0x4(%esp)
  102668:	00 
  102669:	c7 04 24 b3 89 10 00 	movl   $0x1089b3,(%esp)
  102670:	e8 43 de ff ff       	call   1004b8 <debug_panic>

	// Bounds trap
	args.reip = after_bound;
  102675:	c7 45 d8 92 26 10 00 	movl   $0x102692,-0x28(%ebp)
	int bounds[2] = { 1, 3 };
  10267c:	c7 45 d0 01 00 00 00 	movl   $0x1,-0x30(%ebp)
  102683:	c7 45 d4 03 00 00 00 	movl   $0x3,-0x2c(%ebp)
	asm volatile("boundl %0,%1; after_bound:" : : "r" (0), "m" (bounds[0]));
  10268a:	b8 00 00 00 00       	mov    $0x0,%eax
  10268f:	62 45 d0             	bound  %eax,-0x30(%ebp)

00102692 <after_bound>:
	assert(args.trapno == T_BOUND);
  102692:	8b 45 dc             	mov    -0x24(%ebp),%eax
  102695:	83 f8 05             	cmp    $0x5,%eax
  102698:	74 24                	je     1026be <after_bound+0x2c>
  10269a:	c7 44 24 0c 8e 8a 10 	movl   $0x108a8e,0xc(%esp)
  1026a1:	00 
  1026a2:	c7 44 24 08 16 88 10 	movl   $0x108816,0x8(%esp)
  1026a9:	00 
  1026aa:	c7 44 24 04 32 01 00 	movl   $0x132,0x4(%esp)
  1026b1:	00 
  1026b2:	c7 04 24 b3 89 10 00 	movl   $0x1089b3,(%esp)
  1026b9:	e8 fa dd ff ff       	call   1004b8 <debug_panic>

	// Illegal instruction trap
	args.reip = after_illegal;
  1026be:	c7 45 d8 c7 26 10 00 	movl   $0x1026c7,-0x28(%ebp)
	asm volatile("ud2; after_illegal:");	// guaranteed to be undefined
  1026c5:	0f 0b                	ud2    

001026c7 <after_illegal>:
	assert(args.trapno == T_ILLOP);
  1026c7:	8b 45 dc             	mov    -0x24(%ebp),%eax
  1026ca:	83 f8 06             	cmp    $0x6,%eax
  1026cd:	74 24                	je     1026f3 <after_illegal+0x2c>
  1026cf:	c7 44 24 0c a5 8a 10 	movl   $0x108aa5,0xc(%esp)
  1026d6:	00 
  1026d7:	c7 44 24 08 16 88 10 	movl   $0x108816,0x8(%esp)
  1026de:	00 
  1026df:	c7 44 24 04 37 01 00 	movl   $0x137,0x4(%esp)
  1026e6:	00 
  1026e7:	c7 04 24 b3 89 10 00 	movl   $0x1089b3,(%esp)
  1026ee:	e8 c5 dd ff ff       	call   1004b8 <debug_panic>

	// General protection fault due to invalid segment load
	args.reip = after_gpfault;
  1026f3:	c7 45 d8 01 27 10 00 	movl   $0x102701,-0x28(%ebp)
	asm volatile("movl %0,%%fs; after_gpfault:" : : "r" (-1));
  1026fa:	b8 ff ff ff ff       	mov    $0xffffffff,%eax
  1026ff:	8e e0                	mov    %eax,%fs

00102701 <after_gpfault>:
	assert(args.trapno == T_GPFLT);
  102701:	8b 45 dc             	mov    -0x24(%ebp),%eax
  102704:	83 f8 0d             	cmp    $0xd,%eax
  102707:	74 24                	je     10272d <after_gpfault+0x2c>
  102709:	c7 44 24 0c bc 8a 10 	movl   $0x108abc,0xc(%esp)
  102710:	00 
  102711:	c7 44 24 08 16 88 10 	movl   $0x108816,0x8(%esp)
  102718:	00 
  102719:	c7 44 24 04 3c 01 00 	movl   $0x13c,0x4(%esp)
  102720:	00 
  102721:	c7 04 24 b3 89 10 00 	movl   $0x1089b3,(%esp)
  102728:	e8 8b dd ff ff       	call   1004b8 <debug_panic>

static gcc_inline uint16_t
read_cs(void)
{
        uint16_t cs;
        __asm __volatile("movw %%cs,%0" : "=rm" (cs));
  10272d:	8c 4d e6             	mov    %cs,-0x1a(%ebp)
        return cs;
  102730:	0f b7 45 e6          	movzwl -0x1a(%ebp),%eax

	// General protection fault due to privilege violation
	if (read_cs() & 3) {
  102734:	0f b7 c0             	movzwl %ax,%eax
  102737:	83 e0 03             	and    $0x3,%eax
  10273a:	85 c0                	test   %eax,%eax
  10273c:	74 3a                	je     102778 <after_priv+0x2c>
		args.reip = after_priv;
  10273e:	c7 45 d8 4c 27 10 00 	movl   $0x10274c,-0x28(%ebp)
		asm volatile("lidt %0; after_priv:" : : "m" (idt_pd));
  102745:	0f 01 1d 04 c0 10 00 	lidtl  0x10c004

0010274c <after_priv>:
		assert(args.trapno == T_GPFLT);
  10274c:	8b 45 dc             	mov    -0x24(%ebp),%eax
  10274f:	83 f8 0d             	cmp    $0xd,%eax
  102752:	74 24                	je     102778 <after_priv+0x2c>
  102754:	c7 44 24 0c bc 8a 10 	movl   $0x108abc,0xc(%esp)
  10275b:	00 
  10275c:	c7 44 24 08 16 88 10 	movl   $0x108816,0x8(%esp)
  102763:	00 
  102764:	c7 44 24 04 42 01 00 	movl   $0x142,0x4(%esp)
  10276b:	00 
  10276c:	c7 04 24 b3 89 10 00 	movl   $0x1089b3,(%esp)
  102773:	e8 40 dd ff ff       	call   1004b8 <debug_panic>
	}

	// Make sure our stack cookie is still with us
	assert(cookie == 0xfeedface);
  102778:	8b 45 e0             	mov    -0x20(%ebp),%eax
  10277b:	3d ce fa ed fe       	cmp    $0xfeedface,%eax
  102780:	74 24                	je     1027a6 <after_priv+0x5a>
  102782:	c7 44 24 0c 4b 8a 10 	movl   $0x108a4b,0xc(%esp)
  102789:	00 
  10278a:	c7 44 24 08 16 88 10 	movl   $0x108816,0x8(%esp)
  102791:	00 
  102792:	c7 44 24 04 46 01 00 	movl   $0x146,0x4(%esp)
  102799:	00 
  10279a:	c7 04 24 b3 89 10 00 	movl   $0x1089b3,(%esp)
  1027a1:	e8 12 dd ff ff       	call   1004b8 <debug_panic>

	*argsp = NULL;	// recovery mechanism not needed anymore
  1027a6:	8b 45 08             	mov    0x8(%ebp),%eax
  1027a9:	c7 00 00 00 00 00    	movl   $0x0,(%eax)
}
  1027af:	83 c4 3c             	add    $0x3c,%esp
  1027b2:	5b                   	pop    %ebx
  1027b3:	5e                   	pop    %esi
  1027b4:	5f                   	pop    %edi
  1027b5:	5d                   	pop    %ebp
  1027b6:	c3                   	ret    
  1027b7:	90                   	nop
  1027b8:	90                   	nop
  1027b9:	90                   	nop
  1027ba:	90                   	nop
  1027bb:	90                   	nop
  1027bc:	90                   	nop
  1027bd:	90                   	nop
  1027be:	90                   	nop
  1027bf:	90                   	nop

001027c0 <tv0>:
.text

/*
 * Lab 1: Your code here for generating entry points for the different traps.
 */
TRAPHANDLER_NOEC(tv0, 0);
  1027c0:	6a 00                	push   $0x0
  1027c2:	6a 00                	push   $0x0
  1027c4:	e9 e7 00 00 00       	jmp    1028b0 <_alltraps>
  1027c9:	90                   	nop

001027ca <tv2>:
/* TRAPHANDLER_NOEC(trap_debug, 1); */
TRAPHANDLER_NOEC(tv2, 2);
  1027ca:	6a 00                	push   $0x0
  1027cc:	6a 02                	push   $0x2
  1027ce:	e9 dd 00 00 00       	jmp    1028b0 <_alltraps>
  1027d3:	90                   	nop

001027d4 <tv3>:
TRAPHANDLER_NOEC(tv3, 3);
  1027d4:	6a 00                	push   $0x0
  1027d6:	6a 03                	push   $0x3
  1027d8:	e9 d3 00 00 00       	jmp    1028b0 <_alltraps>
  1027dd:	90                   	nop

001027de <tv4>:
TRAPHANDLER_NOEC(tv4, 4);
  1027de:	6a 00                	push   $0x0
  1027e0:	6a 04                	push   $0x4
  1027e2:	e9 c9 00 00 00       	jmp    1028b0 <_alltraps>
  1027e7:	90                   	nop

001027e8 <tv5>:
TRAPHANDLER_NOEC(tv5, 5);
  1027e8:	6a 00                	push   $0x0
  1027ea:	6a 05                	push   $0x5
  1027ec:	e9 bf 00 00 00       	jmp    1028b0 <_alltraps>
  1027f1:	90                   	nop

001027f2 <tv6>:
TRAPHANDLER_NOEC(tv6, 6);
  1027f2:	6a 00                	push   $0x0
  1027f4:	6a 06                	push   $0x6
  1027f6:	e9 b5 00 00 00       	jmp    1028b0 <_alltraps>
  1027fb:	90                   	nop

001027fc <tv7>:
TRAPHANDLER_NOEC(tv7, 7);
  1027fc:	6a 00                	push   $0x0
  1027fe:	6a 07                	push   $0x7
  102800:	e9 ab 00 00 00       	jmp    1028b0 <_alltraps>
  102805:	90                   	nop

00102806 <tv8>:
TRAPHANDLER(tv8, 8);
  102806:	6a 08                	push   $0x8
  102808:	e9 a3 00 00 00       	jmp    1028b0 <_alltraps>
  10280d:	90                   	nop

0010280e <tv10>:
/* TRAPHANDLER_NOEC(trap_coproc_seg_overrun, 9); */
TRAPHANDLER(tv10, 10);
  10280e:	6a 0a                	push   $0xa
  102810:	e9 9b 00 00 00       	jmp    1028b0 <_alltraps>
  102815:	90                   	nop

00102816 <tv11>:
TRAPHANDLER(tv11, 11);
  102816:	6a 0b                	push   $0xb
  102818:	e9 93 00 00 00       	jmp    1028b0 <_alltraps>
  10281d:	90                   	nop

0010281e <tv12>:
TRAPHANDLER(tv12, 12);
  10281e:	6a 0c                	push   $0xc
  102820:	e9 8b 00 00 00       	jmp    1028b0 <_alltraps>
  102825:	90                   	nop

00102826 <tv13>:
TRAPHANDLER(tv13, 13);
  102826:	6a 0d                	push   $0xd
  102828:	e9 83 00 00 00       	jmp    1028b0 <_alltraps>
  10282d:	90                   	nop

0010282e <tv14>:
TRAPHANDLER(tv14, 14);
  10282e:	6a 0e                	push   $0xe
  102830:	e9 7b 00 00 00       	jmp    1028b0 <_alltraps>
  102835:	90                   	nop

00102836 <tv16>:
/* TRAPHANDLER_NOEC(reserved, 15); */
TRAPHANDLER_NOEC(tv16, 16);
  102836:	6a 00                	push   $0x0
  102838:	6a 10                	push   $0x10
  10283a:	e9 71 00 00 00       	jmp    1028b0 <_alltraps>
  10283f:	90                   	nop

00102840 <tv17>:
TRAPHANDLER(tv17, 17);
  102840:	6a 11                	push   $0x11
  102842:	e9 69 00 00 00       	jmp    1028b0 <_alltraps>
  102847:	90                   	nop

00102848 <tv18>:
TRAPHANDLER_NOEC(tv18, 18);
  102848:	6a 00                	push   $0x0
  10284a:	6a 12                	push   $0x12
  10284c:	e9 5f 00 00 00       	jmp    1028b0 <_alltraps>
  102851:	90                   	nop

00102852 <tv19>:
TRAPHANDLER_NOEC(tv19, 19);
  102852:	6a 00                	push   $0x0
  102854:	6a 13                	push   $0x13
  102856:	e9 55 00 00 00       	jmp    1028b0 <_alltraps>
  10285b:	90                   	nop

0010285c <tv30>:
TRAPHANDLER_NOEC(tv30, 30);
  10285c:	6a 00                	push   $0x0
  10285e:	6a 1e                	push   $0x1e
  102860:	e9 4b 00 00 00       	jmp    1028b0 <_alltraps>
  102865:	90                   	nop

00102866 <tv32>:
TRAPHANDLER_NOEC(tv32, 32);
  102866:	6a 00                	push   $0x0
  102868:	6a 20                	push   $0x20
  10286a:	e9 41 00 00 00       	jmp    1028b0 <_alltraps>
  10286f:	90                   	nop

00102870 <tv39>:
TRAPHANDLER_NOEC(tv39, 39);
  102870:	6a 00                	push   $0x0
  102872:	6a 27                	push   $0x27
  102874:	e9 37 00 00 00       	jmp    1028b0 <_alltraps>
  102879:	90                   	nop

0010287a <tv48>:
TRAPHANDLER_NOEC(tv48, 48);
  10287a:	6a 00                	push   $0x0
  10287c:	6a 30                	push   $0x30
  10287e:	e9 2d 00 00 00       	jmp    1028b0 <_alltraps>
  102883:	90                   	nop

00102884 <tv49>:
TRAPHANDLER_NOEC(tv49, 49);
  102884:	6a 00                	push   $0x0
  102886:	6a 31                	push   $0x31
  102888:	e9 23 00 00 00       	jmp    1028b0 <_alltraps>
  10288d:	90                   	nop

0010288e <tv50>:
TRAPHANDLER_NOEC(tv50, 50);
  10288e:	6a 00                	push   $0x0
  102890:	6a 32                	push   $0x32
  102892:	e9 19 00 00 00       	jmp    1028b0 <_alltraps>
  102897:	90                   	nop

00102898 <tv500>:
TRAPHANDLER_NOEC(tv500, 500);
  102898:	6a 00                	push   $0x0
  10289a:	68 f4 01 00 00       	push   $0x1f4
  10289f:	e9 0c 00 00 00       	jmp    1028b0 <_alltraps>

001028a4 <tv501>:
TRAPHANDLER_NOEC(tv501, 501);
  1028a4:	6a 00                	push   $0x0
  1028a6:	68 f5 01 00 00       	push   $0x1f5
  1028ab:	e9 00 00 00 00       	jmp    1028b0 <_alltraps>

001028b0 <_alltraps>:
/*
 * Lab 1: Your code here for _alltraps
 */
.globl _alltraps
_alltraps:
	pushl %ds
  1028b0:	1e                   	push   %ds
	pushl %es
  1028b1:	06                   	push   %es
	pushl %fs
  1028b2:	0f a0                	push   %fs
	pushl %gs
  1028b4:	0f a8                	push   %gs
	pushal
  1028b6:	60                   	pusha  

	movw $CPU_GDT_KDATA, %ax
  1028b7:	66 b8 10 00          	mov    $0x10,%ax
	movw %ax, %ds
  1028bb:	8e d8                	mov    %eax,%ds
	movw %ax, %es
  1028bd:	8e c0                	mov    %eax,%es

	pushl %esp // passing trapframe addr as parameter
  1028bf:	54                   	push   %esp
	call trap
  1028c0:	e8 4f fa ff ff       	call   102314 <trap>
  1028c5:	8d 74 26 00          	lea    0x0(%esi,%eiz,1),%esi
  1028c9:	8d bc 27 00 00 00 00 	lea    0x0(%edi,%eiz,1),%edi

001028d0 <trap_return>:
// replaces the caller's stack pointer and other registers.
.globl	trap_return
.type	trap_return,@function
.p2align 4, 0x90		/* 16-byte alignment, nop filled */
trap_return:
	movl 0x4(%esp), %eax
  1028d0:	8b 44 24 04          	mov    0x4(%esp),%eax
	movl %eax, %esp // setting stack to trap frame
  1028d4:	89 c4                	mov    %eax,%esp
	popal
  1028d6:	61                   	popa   
	popl %gs
  1028d7:	0f a9                	pop    %gs
	popl %fs
  1028d9:	0f a1                	pop    %fs
	popl %es
  1028db:	07                   	pop    %es
	popl %ds
  1028dc:	1f                   	pop    %ds
	addl $0x8, %esp // trapno and errcode
  1028dd:	83 c4 08             	add    $0x8,%esp
	iret
  1028e0:	cf                   	iret   
  1028e1:	90                   	nop
  1028e2:	90                   	nop
  1028e3:	90                   	nop

001028e4 <cpu_cur>:
#define cpu_disabled(c)		0

// Find the CPU struct representing the current CPU.
// It always resides at the bottom of the page containing the CPU's stack.
static inline cpu *
cpu_cur() {
  1028e4:	55                   	push   %ebp
  1028e5:	89 e5                	mov    %esp,%ebp
  1028e7:	83 ec 28             	sub    $0x28,%esp

static gcc_inline uint32_t
read_esp(void)
{
        uint32_t esp;
        __asm __volatile("movl %%esp,%0" : "=rm" (esp));
  1028ea:	89 65 f4             	mov    %esp,-0xc(%ebp)
        return esp;
  1028ed:	8b 45 f4             	mov    -0xc(%ebp),%eax
	cpu *c = (cpu*)ROUNDDOWN(read_esp(), PAGESIZE);
  1028f0:	89 45 f0             	mov    %eax,-0x10(%ebp)
  1028f3:	8b 45 f0             	mov    -0x10(%ebp),%eax
  1028f6:	25 00 f0 ff ff       	and    $0xfffff000,%eax
  1028fb:	89 45 ec             	mov    %eax,-0x14(%ebp)
	assert(c->magic == CPU_MAGIC);
  1028fe:	8b 45 ec             	mov    -0x14(%ebp),%eax
  102901:	8b 80 b8 00 00 00    	mov    0xb8(%eax),%eax
  102907:	3d 32 54 76 98       	cmp    $0x98765432,%eax
  10290c:	74 24                	je     102932 <cpu_cur+0x4e>
  10290e:	c7 44 24 0c 70 8c 10 	movl   $0x108c70,0xc(%esp)
  102915:	00 
  102916:	c7 44 24 08 86 8c 10 	movl   $0x108c86,0x8(%esp)
  10291d:	00 
  10291e:	c7 44 24 04 5c 00 00 	movl   $0x5c,0x4(%esp)
  102925:	00 
  102926:	c7 04 24 9b 8c 10 00 	movl   $0x108c9b,(%esp)
  10292d:	e8 86 db ff ff       	call   1004b8 <debug_panic>
	return c;
  102932:	8b 45 ec             	mov    -0x14(%ebp),%eax
}
  102935:	c9                   	leave  
  102936:	c3                   	ret    

00102937 <cpu_onboot>:

// Returns true if we're running on the bootstrap CPU.
static inline int
cpu_onboot() {
  102937:	55                   	push   %ebp
  102938:	89 e5                	mov    %esp,%ebp
  10293a:	83 ec 08             	sub    $0x8,%esp
	return cpu_cur() == &cpu_boot;
  10293d:	e8 a2 ff ff ff       	call   1028e4 <cpu_cur>
  102942:	3d 00 b0 10 00       	cmp    $0x10b000,%eax
  102947:	0f 94 c0             	sete   %al
  10294a:	0f b6 c0             	movzbl %al,%eax
}
  10294d:	c9                   	leave  
  10294e:	c3                   	ret    

0010294f <sum>:
volatile struct ioapic *ioapic;


static uint8_t
sum(uint8_t * addr, int len)
{
  10294f:	55                   	push   %ebp
  102950:	89 e5                	mov    %esp,%ebp
  102952:	83 ec 10             	sub    $0x10,%esp
	int i, sum;

	sum = 0;
  102955:	c7 45 fc 00 00 00 00 	movl   $0x0,-0x4(%ebp)
	for (i = 0; i < len; i++)
  10295c:	c7 45 f8 00 00 00 00 	movl   $0x0,-0x8(%ebp)
  102963:	eb 13                	jmp    102978 <sum+0x29>
		sum += addr[i];
  102965:	8b 45 f8             	mov    -0x8(%ebp),%eax
  102968:	03 45 08             	add    0x8(%ebp),%eax
  10296b:	0f b6 00             	movzbl (%eax),%eax
  10296e:	0f b6 c0             	movzbl %al,%eax
  102971:	01 45 fc             	add    %eax,-0x4(%ebp)
sum(uint8_t * addr, int len)
{
	int i, sum;

	sum = 0;
	for (i = 0; i < len; i++)
  102974:	83 45 f8 01          	addl   $0x1,-0x8(%ebp)
  102978:	8b 45 f8             	mov    -0x8(%ebp),%eax
  10297b:	3b 45 0c             	cmp    0xc(%ebp),%eax
  10297e:	7c e5                	jl     102965 <sum+0x16>
		sum += addr[i];
	return sum;
  102980:	8b 45 fc             	mov    -0x4(%ebp),%eax
}
  102983:	c9                   	leave  
  102984:	c3                   	ret    

00102985 <mpsearch1>:

//Look for an MP structure in the len bytes at addr.
static struct mp *
mpsearch1(uint8_t * addr, int len)
{
  102985:	55                   	push   %ebp
  102986:	89 e5                	mov    %esp,%ebp
  102988:	83 ec 28             	sub    $0x28,%esp
	uint8_t *e, *p;

	e = addr + len;
  10298b:	8b 45 0c             	mov    0xc(%ebp),%eax
  10298e:	03 45 08             	add    0x8(%ebp),%eax
  102991:	89 45 f0             	mov    %eax,-0x10(%ebp)
	for (p = addr; p < e; p += sizeof(struct mp))
  102994:	8b 45 08             	mov    0x8(%ebp),%eax
  102997:	89 45 f4             	mov    %eax,-0xc(%ebp)
  10299a:	eb 3f                	jmp    1029db <mpsearch1+0x56>
		if (memcmp(p, "_MP_", 4) == 0 && sum(p, sizeof(struct mp)) == 0)
  10299c:	c7 44 24 08 04 00 00 	movl   $0x4,0x8(%esp)
  1029a3:	00 
  1029a4:	c7 44 24 04 a8 8c 10 	movl   $0x108ca8,0x4(%esp)
  1029ab:	00 
  1029ac:	8b 45 f4             	mov    -0xc(%ebp),%eax
  1029af:	89 04 24             	mov    %eax,(%esp)
  1029b2:	e8 1d 56 00 00       	call   107fd4 <memcmp>
  1029b7:	85 c0                	test   %eax,%eax
  1029b9:	75 1c                	jne    1029d7 <mpsearch1+0x52>
  1029bb:	c7 44 24 04 10 00 00 	movl   $0x10,0x4(%esp)
  1029c2:	00 
  1029c3:	8b 45 f4             	mov    -0xc(%ebp),%eax
  1029c6:	89 04 24             	mov    %eax,(%esp)
  1029c9:	e8 81 ff ff ff       	call   10294f <sum>
  1029ce:	84 c0                	test   %al,%al
  1029d0:	75 05                	jne    1029d7 <mpsearch1+0x52>
			return (struct mp *) p;
  1029d2:	8b 45 f4             	mov    -0xc(%ebp),%eax
  1029d5:	eb 11                	jmp    1029e8 <mpsearch1+0x63>
mpsearch1(uint8_t * addr, int len)
{
	uint8_t *e, *p;

	e = addr + len;
	for (p = addr; p < e; p += sizeof(struct mp))
  1029d7:	83 45 f4 10          	addl   $0x10,-0xc(%ebp)
  1029db:	8b 45 f4             	mov    -0xc(%ebp),%eax
  1029de:	3b 45 f0             	cmp    -0x10(%ebp),%eax
  1029e1:	72 b9                	jb     10299c <mpsearch1+0x17>
		if (memcmp(p, "_MP_", 4) == 0 && sum(p, sizeof(struct mp)) == 0)
			return (struct mp *) p;
	return 0;
  1029e3:	b8 00 00 00 00       	mov    $0x0,%eax
}
  1029e8:	c9                   	leave  
  1029e9:	c3                   	ret    

001029ea <mpsearch>:
// 1) in the first KB of the EBDA;
// 2) in the last KB of system base memory;
// 3) in the BIOS ROM between 0xE0000 and 0xFFFFF.
static struct mp *
mpsearch(void)
{
  1029ea:	55                   	push   %ebp
  1029eb:	89 e5                	mov    %esp,%ebp
  1029ed:	83 ec 28             	sub    $0x28,%esp
	uint8_t          *bda;
	uint32_t            p;
	struct mp      *mp;

	bda = (uint8_t *) 0x400;
  1029f0:	c7 45 ec 00 04 00 00 	movl   $0x400,-0x14(%ebp)
	if ((p = ((bda[0x0F] << 8) | bda[0x0E]) << 4)) {
  1029f7:	8b 45 ec             	mov    -0x14(%ebp),%eax
  1029fa:	83 c0 0f             	add    $0xf,%eax
  1029fd:	0f b6 00             	movzbl (%eax),%eax
  102a00:	0f b6 c0             	movzbl %al,%eax
  102a03:	89 c2                	mov    %eax,%edx
  102a05:	c1 e2 08             	shl    $0x8,%edx
  102a08:	8b 45 ec             	mov    -0x14(%ebp),%eax
  102a0b:	83 c0 0e             	add    $0xe,%eax
  102a0e:	0f b6 00             	movzbl (%eax),%eax
  102a11:	0f b6 c0             	movzbl %al,%eax
  102a14:	09 d0                	or     %edx,%eax
  102a16:	c1 e0 04             	shl    $0x4,%eax
  102a19:	89 45 f0             	mov    %eax,-0x10(%ebp)
  102a1c:	83 7d f0 00          	cmpl   $0x0,-0x10(%ebp)
  102a20:	74 21                	je     102a43 <mpsearch+0x59>
		if ((mp = mpsearch1((uint8_t *) p, 1024)))
  102a22:	8b 45 f0             	mov    -0x10(%ebp),%eax
  102a25:	c7 44 24 04 00 04 00 	movl   $0x400,0x4(%esp)
  102a2c:	00 
  102a2d:	89 04 24             	mov    %eax,(%esp)
  102a30:	e8 50 ff ff ff       	call   102985 <mpsearch1>
  102a35:	89 45 f4             	mov    %eax,-0xc(%ebp)
  102a38:	83 7d f4 00          	cmpl   $0x0,-0xc(%ebp)
  102a3c:	74 50                	je     102a8e <mpsearch+0xa4>
			return mp;
  102a3e:	8b 45 f4             	mov    -0xc(%ebp),%eax
  102a41:	eb 5f                	jmp    102aa2 <mpsearch+0xb8>
	} else {
		p = ((bda[0x14] << 8) | bda[0x13]) * 1024;
  102a43:	8b 45 ec             	mov    -0x14(%ebp),%eax
  102a46:	83 c0 14             	add    $0x14,%eax
  102a49:	0f b6 00             	movzbl (%eax),%eax
  102a4c:	0f b6 c0             	movzbl %al,%eax
  102a4f:	89 c2                	mov    %eax,%edx
  102a51:	c1 e2 08             	shl    $0x8,%edx
  102a54:	8b 45 ec             	mov    -0x14(%ebp),%eax
  102a57:	83 c0 13             	add    $0x13,%eax
  102a5a:	0f b6 00             	movzbl (%eax),%eax
  102a5d:	0f b6 c0             	movzbl %al,%eax
  102a60:	09 d0                	or     %edx,%eax
  102a62:	c1 e0 0a             	shl    $0xa,%eax
  102a65:	89 45 f0             	mov    %eax,-0x10(%ebp)
		if ((mp = mpsearch1((uint8_t *) p - 1024, 1024)))
  102a68:	8b 45 f0             	mov    -0x10(%ebp),%eax
  102a6b:	2d 00 04 00 00       	sub    $0x400,%eax
  102a70:	c7 44 24 04 00 04 00 	movl   $0x400,0x4(%esp)
  102a77:	00 
  102a78:	89 04 24             	mov    %eax,(%esp)
  102a7b:	e8 05 ff ff ff       	call   102985 <mpsearch1>
  102a80:	89 45 f4             	mov    %eax,-0xc(%ebp)
  102a83:	83 7d f4 00          	cmpl   $0x0,-0xc(%ebp)
  102a87:	74 05                	je     102a8e <mpsearch+0xa4>
			return mp;
  102a89:	8b 45 f4             	mov    -0xc(%ebp),%eax
  102a8c:	eb 14                	jmp    102aa2 <mpsearch+0xb8>
	}
	return mpsearch1((uint8_t *) 0xF0000, 0x10000);
  102a8e:	c7 44 24 04 00 00 01 	movl   $0x10000,0x4(%esp)
  102a95:	00 
  102a96:	c7 04 24 00 00 0f 00 	movl   $0xf0000,(%esp)
  102a9d:	e8 e3 fe ff ff       	call   102985 <mpsearch1>
}
  102aa2:	c9                   	leave  
  102aa3:	c3                   	ret    

00102aa4 <mpconfig>:
// don 't accept the default configurations (physaddr == 0).
// Check for correct signature, calculate the checksum and,
// if correct, check the version.
// To do: check extended table checksum.
static struct mpconf *
mpconfig(struct mp **pmp) {
  102aa4:	55                   	push   %ebp
  102aa5:	89 e5                	mov    %esp,%ebp
  102aa7:	83 ec 28             	sub    $0x28,%esp
	struct mpconf  *conf;
	struct mp      *mp;

	if ((mp = mpsearch()) == 0 || mp->physaddr == 0)
  102aaa:	e8 3b ff ff ff       	call   1029ea <mpsearch>
  102aaf:	89 45 f4             	mov    %eax,-0xc(%ebp)
  102ab2:	83 7d f4 00          	cmpl   $0x0,-0xc(%ebp)
  102ab6:	74 0a                	je     102ac2 <mpconfig+0x1e>
  102ab8:	8b 45 f4             	mov    -0xc(%ebp),%eax
  102abb:	8b 40 04             	mov    0x4(%eax),%eax
  102abe:	85 c0                	test   %eax,%eax
  102ac0:	75 07                	jne    102ac9 <mpconfig+0x25>
		return 0;
  102ac2:	b8 00 00 00 00       	mov    $0x0,%eax
  102ac7:	eb 7b                	jmp    102b44 <mpconfig+0xa0>
	conf = (struct mpconf *) mp->physaddr;
  102ac9:	8b 45 f4             	mov    -0xc(%ebp),%eax
  102acc:	8b 40 04             	mov    0x4(%eax),%eax
  102acf:	89 45 f0             	mov    %eax,-0x10(%ebp)
	if (memcmp(conf, "PCMP", 4) != 0)
  102ad2:	c7 44 24 08 04 00 00 	movl   $0x4,0x8(%esp)
  102ad9:	00 
  102ada:	c7 44 24 04 ad 8c 10 	movl   $0x108cad,0x4(%esp)
  102ae1:	00 
  102ae2:	8b 45 f0             	mov    -0x10(%ebp),%eax
  102ae5:	89 04 24             	mov    %eax,(%esp)
  102ae8:	e8 e7 54 00 00       	call   107fd4 <memcmp>
  102aed:	85 c0                	test   %eax,%eax
  102aef:	74 07                	je     102af8 <mpconfig+0x54>
		return 0;
  102af1:	b8 00 00 00 00       	mov    $0x0,%eax
  102af6:	eb 4c                	jmp    102b44 <mpconfig+0xa0>
	if (conf->version != 1 && conf->version != 4)
  102af8:	8b 45 f0             	mov    -0x10(%ebp),%eax
  102afb:	0f b6 40 06          	movzbl 0x6(%eax),%eax
  102aff:	3c 01                	cmp    $0x1,%al
  102b01:	74 12                	je     102b15 <mpconfig+0x71>
  102b03:	8b 45 f0             	mov    -0x10(%ebp),%eax
  102b06:	0f b6 40 06          	movzbl 0x6(%eax),%eax
  102b0a:	3c 04                	cmp    $0x4,%al
  102b0c:	74 07                	je     102b15 <mpconfig+0x71>
		return 0;
  102b0e:	b8 00 00 00 00       	mov    $0x0,%eax
  102b13:	eb 2f                	jmp    102b44 <mpconfig+0xa0>
	if (sum((uint8_t *) conf, conf->length) != 0)
  102b15:	8b 45 f0             	mov    -0x10(%ebp),%eax
  102b18:	0f b7 40 04          	movzwl 0x4(%eax),%eax
  102b1c:	0f b7 d0             	movzwl %ax,%edx
  102b1f:	8b 45 f0             	mov    -0x10(%ebp),%eax
  102b22:	89 54 24 04          	mov    %edx,0x4(%esp)
  102b26:	89 04 24             	mov    %eax,(%esp)
  102b29:	e8 21 fe ff ff       	call   10294f <sum>
  102b2e:	84 c0                	test   %al,%al
  102b30:	74 07                	je     102b39 <mpconfig+0x95>
		return 0;
  102b32:	b8 00 00 00 00       	mov    $0x0,%eax
  102b37:	eb 0b                	jmp    102b44 <mpconfig+0xa0>
       *pmp = mp;
  102b39:	8b 45 08             	mov    0x8(%ebp),%eax
  102b3c:	8b 55 f4             	mov    -0xc(%ebp),%edx
  102b3f:	89 10                	mov    %edx,(%eax)
	return conf;
  102b41:	8b 45 f0             	mov    -0x10(%ebp),%eax
}
  102b44:	c9                   	leave  
  102b45:	c3                   	ret    

00102b46 <mp_init>:

void
mp_init(void)
{
  102b46:	55                   	push   %ebp
  102b47:	89 e5                	mov    %esp,%ebp
  102b49:	83 ec 48             	sub    $0x48,%esp
	struct mp      *mp;
	struct mpconf  *conf;
	struct mpproc  *proc;
	struct mpioapic *mpio;

	if (!cpu_onboot())	// only do once, on the boot CPU
  102b4c:	e8 e6 fd ff ff       	call   102937 <cpu_onboot>
  102b51:	85 c0                	test   %eax,%eax
  102b53:	0f 84 72 01 00 00    	je     102ccb <mp_init+0x185>
		return;

	if ((conf = mpconfig(&mp)) == 0)
  102b59:	8d 45 c8             	lea    -0x38(%ebp),%eax
  102b5c:	89 04 24             	mov    %eax,(%esp)
  102b5f:	e8 40 ff ff ff       	call   102aa4 <mpconfig>
  102b64:	89 45 d4             	mov    %eax,-0x2c(%ebp)
  102b67:	83 7d d4 00          	cmpl   $0x0,-0x2c(%ebp)
  102b6b:	0f 84 5d 01 00 00    	je     102cce <mp_init+0x188>
		return; // Not a multiprocessor machine - just use boot CPU.

	ismp = 1;
  102b71:	c7 05 30 ed 11 00 01 	movl   $0x1,0x11ed30
  102b78:	00 00 00 
	lapic = (uint32_t *) conf->lapicaddr;
  102b7b:	8b 45 d4             	mov    -0x2c(%ebp),%eax
  102b7e:	8b 40 24             	mov    0x24(%eax),%eax
  102b81:	a3 04 20 12 00       	mov    %eax,0x122004
	for (p = (uint8_t *) (conf + 1), e = (uint8_t *) conf + conf->length;
  102b86:	8b 45 d4             	mov    -0x2c(%ebp),%eax
  102b89:	83 c0 2c             	add    $0x2c,%eax
  102b8c:	89 45 cc             	mov    %eax,-0x34(%ebp)
  102b8f:	8b 55 d4             	mov    -0x2c(%ebp),%edx
  102b92:	8b 45 d4             	mov    -0x2c(%ebp),%eax
  102b95:	0f b7 40 04          	movzwl 0x4(%eax),%eax
  102b99:	0f b7 c0             	movzwl %ax,%eax
  102b9c:	8d 04 02             	lea    (%edx,%eax,1),%eax
  102b9f:	89 45 d0             	mov    %eax,-0x30(%ebp)
  102ba2:	e9 cc 00 00 00       	jmp    102c73 <mp_init+0x12d>
			p < e;) {
		switch (*p) {
  102ba7:	8b 45 cc             	mov    -0x34(%ebp),%eax
  102baa:	0f b6 00             	movzbl (%eax),%eax
  102bad:	0f b6 c0             	movzbl %al,%eax
  102bb0:	83 f8 04             	cmp    $0x4,%eax
  102bb3:	0f 87 90 00 00 00    	ja     102c49 <mp_init+0x103>
  102bb9:	8b 04 85 e0 8c 10 00 	mov    0x108ce0(,%eax,4),%eax
  102bc0:	ff e0                	jmp    *%eax
		case MPPROC:
			proc = (struct mpproc *) p;
  102bc2:	8b 45 cc             	mov    -0x34(%ebp),%eax
  102bc5:	89 45 d8             	mov    %eax,-0x28(%ebp)
			p += sizeof(struct mpproc);
  102bc8:	83 45 cc 14          	addl   $0x14,-0x34(%ebp)
			if (!(proc->flags & MPENAB))
  102bcc:	8b 45 d8             	mov    -0x28(%ebp),%eax
  102bcf:	0f b6 40 03          	movzbl 0x3(%eax),%eax
  102bd3:	0f b6 c0             	movzbl %al,%eax
  102bd6:	83 e0 01             	and    $0x1,%eax
  102bd9:	85 c0                	test   %eax,%eax
  102bdb:	0f 84 91 00 00 00    	je     102c72 <mp_init+0x12c>
				continue;	// processor disabled

			// Get a cpu struct and kernel stack for this CPU.
			cpu *c = (proc->flags & MPBOOT)
  102be1:	8b 45 d8             	mov    -0x28(%ebp),%eax
  102be4:	0f b6 40 03          	movzbl 0x3(%eax),%eax
  102be8:	0f b6 c0             	movzbl %al,%eax
  102beb:	83 e0 02             	and    $0x2,%eax
					? &cpu_boot : cpu_alloc();
  102bee:	85 c0                	test   %eax,%eax
  102bf0:	75 07                	jne    102bf9 <mp_init+0xb3>
  102bf2:	e8 ad e7 ff ff       	call   1013a4 <cpu_alloc>
  102bf7:	eb 05                	jmp    102bfe <mp_init+0xb8>
  102bf9:	b8 00 b0 10 00       	mov    $0x10b000,%eax
  102bfe:	89 45 e0             	mov    %eax,-0x20(%ebp)
			c->id = proc->apicid;
  102c01:	8b 45 d8             	mov    -0x28(%ebp),%eax
  102c04:	0f b6 50 01          	movzbl 0x1(%eax),%edx
  102c08:	8b 45 e0             	mov    -0x20(%ebp),%eax
  102c0b:	88 90 ac 00 00 00    	mov    %dl,0xac(%eax)
			ncpu++;
  102c11:	a1 34 ed 11 00       	mov    0x11ed34,%eax
  102c16:	83 c0 01             	add    $0x1,%eax
  102c19:	a3 34 ed 11 00       	mov    %eax,0x11ed34
			continue;
  102c1e:	eb 53                	jmp    102c73 <mp_init+0x12d>
		case MPIOAPIC:
			mpio = (struct mpioapic *) p;
  102c20:	8b 45 cc             	mov    -0x34(%ebp),%eax
  102c23:	89 45 dc             	mov    %eax,-0x24(%ebp)
			p += sizeof(struct mpioapic);
  102c26:	83 45 cc 08          	addl   $0x8,-0x34(%ebp)
			ioapicid = mpio->apicno;
  102c2a:	8b 45 dc             	mov    -0x24(%ebp),%eax
  102c2d:	0f b6 40 01          	movzbl 0x1(%eax),%eax
  102c31:	a2 28 ed 11 00       	mov    %al,0x11ed28
			ioapic = (struct ioapic *) mpio->addr;
  102c36:	8b 45 dc             	mov    -0x24(%ebp),%eax
  102c39:	8b 40 04             	mov    0x4(%eax),%eax
  102c3c:	a3 2c ed 11 00       	mov    %eax,0x11ed2c
			continue;
  102c41:	eb 30                	jmp    102c73 <mp_init+0x12d>
		case MPBUS:
		case MPIOINTR:
		case MPLINTR:
			p += 8;
  102c43:	83 45 cc 08          	addl   $0x8,-0x34(%ebp)
			continue;
  102c47:	eb 2a                	jmp    102c73 <mp_init+0x12d>
		default:
			panic("mpinit: unknown config type %x\n", *p);
  102c49:	8b 45 cc             	mov    -0x34(%ebp),%eax
  102c4c:	0f b6 00             	movzbl (%eax),%eax
  102c4f:	0f b6 c0             	movzbl %al,%eax
  102c52:	89 44 24 0c          	mov    %eax,0xc(%esp)
  102c56:	c7 44 24 08 b4 8c 10 	movl   $0x108cb4,0x8(%esp)
  102c5d:	00 
  102c5e:	c7 44 24 04 92 00 00 	movl   $0x92,0x4(%esp)
  102c65:	00 
  102c66:	c7 04 24 d4 8c 10 00 	movl   $0x108cd4,(%esp)
  102c6d:	e8 46 d8 ff ff       	call   1004b8 <debug_panic>
		switch (*p) {
		case MPPROC:
			proc = (struct mpproc *) p;
			p += sizeof(struct mpproc);
			if (!(proc->flags & MPENAB))
				continue;	// processor disabled
  102c72:	90                   	nop
	if ((conf = mpconfig(&mp)) == 0)
		return; // Not a multiprocessor machine - just use boot CPU.

	ismp = 1;
	lapic = (uint32_t *) conf->lapicaddr;
	for (p = (uint8_t *) (conf + 1), e = (uint8_t *) conf + conf->length;
  102c73:	8b 45 cc             	mov    -0x34(%ebp),%eax
  102c76:	3b 45 d0             	cmp    -0x30(%ebp),%eax
  102c79:	0f 82 28 ff ff ff    	jb     102ba7 <mp_init+0x61>
			continue;
		default:
			panic("mpinit: unknown config type %x\n", *p);
		}
	}
	if (mp->imcrp) {
  102c7f:	8b 45 c8             	mov    -0x38(%ebp),%eax
  102c82:	0f b6 40 0c          	movzbl 0xc(%eax),%eax
  102c86:	84 c0                	test   %al,%al
  102c88:	74 45                	je     102ccf <mp_init+0x189>
  102c8a:	c7 45 e8 22 00 00 00 	movl   $0x22,-0x18(%ebp)
  102c91:	c6 45 e7 70          	movb   $0x70,-0x19(%ebp)
}

static gcc_inline void
outb(int port, uint8_t data)
{
	__asm __volatile("outb %0,%w1" : : "a" (data), "d" (port));
  102c95:	0f b6 45 e7          	movzbl -0x19(%ebp),%eax
  102c99:	8b 55 e8             	mov    -0x18(%ebp),%edx
  102c9c:	ee                   	out    %al,(%dx)
  102c9d:	c7 45 ec 23 00 00 00 	movl   $0x23,-0x14(%ebp)

static gcc_inline uint8_t
inb(int port)
{
	uint8_t data;
	__asm __volatile("inb %w1,%0" : "=a" (data) : "d" (port));
  102ca4:	8b 45 ec             	mov    -0x14(%ebp),%eax
  102ca7:	89 c2                	mov    %eax,%edx
  102ca9:	ec                   	in     (%dx),%al
  102caa:	88 45 f2             	mov    %al,-0xe(%ebp)
	return data;
  102cad:	0f b6 45 f2          	movzbl -0xe(%ebp),%eax
		// Bochs doesn 't support IMCR, so this doesn' t run on Bochs.
		// But it would on real hardware.
		outb(0x22, 0x70);		// Select IMCR
		outb(0x23, inb(0x23) | 1);	// Mask external interrupts.
  102cb1:	83 c8 01             	or     $0x1,%eax
  102cb4:	0f b6 c0             	movzbl %al,%eax
  102cb7:	c7 45 f4 23 00 00 00 	movl   $0x23,-0xc(%ebp)
  102cbe:	88 45 f3             	mov    %al,-0xd(%ebp)
}

static gcc_inline void
outb(int port, uint8_t data)
{
	__asm __volatile("outb %0,%w1" : : "a" (data), "d" (port));
  102cc1:	0f b6 45 f3          	movzbl -0xd(%ebp),%eax
  102cc5:	8b 55 f4             	mov    -0xc(%ebp),%edx
  102cc8:	ee                   	out    %al,(%dx)
  102cc9:	eb 04                	jmp    102ccf <mp_init+0x189>
	struct mpconf  *conf;
	struct mpproc  *proc;
	struct mpioapic *mpio;

	if (!cpu_onboot())	// only do once, on the boot CPU
		return;
  102ccb:	90                   	nop
  102ccc:	eb 01                	jmp    102ccf <mp_init+0x189>

	if ((conf = mpconfig(&mp)) == 0)
		return; // Not a multiprocessor machine - just use boot CPU.
  102cce:	90                   	nop
		// Bochs doesn 't support IMCR, so this doesn' t run on Bochs.
		// But it would on real hardware.
		outb(0x22, 0x70);		// Select IMCR
		outb(0x23, inb(0x23) | 1);	// Mask external interrupts.
	}
}
  102ccf:	c9                   	leave  
  102cd0:	c3                   	ret    
  102cd1:	90                   	nop
  102cd2:	90                   	nop
  102cd3:	90                   	nop

00102cd4 <xchg>:
}

// Atomically set *addr to newval and return the old value of *addr.
static inline uint32_t
xchg(volatile uint32_t *addr, uint32_t newval)
{
  102cd4:	55                   	push   %ebp
  102cd5:	89 e5                	mov    %esp,%ebp
  102cd7:	83 ec 10             	sub    $0x10,%esp
	uint32_t result;

	// The + in "+m" denotes a read-modify-write operand.
	asm volatile("lock; xchgl %0, %1" :
  102cda:	8b 55 08             	mov    0x8(%ebp),%edx
  102cdd:	8b 45 0c             	mov    0xc(%ebp),%eax
  102ce0:	8b 4d 08             	mov    0x8(%ebp),%ecx
  102ce3:	f0 87 02             	lock xchg %eax,(%edx)
  102ce6:	89 45 fc             	mov    %eax,-0x4(%ebp)
	       "+m" (*addr), "=a" (result) :
	       "1" (newval) :
	       "cc");
	return result;
  102ce9:	8b 45 fc             	mov    -0x4(%ebp),%eax
}
  102cec:	c9                   	leave  
  102ced:	c3                   	ret    

00102cee <pause>:
	return result;
}

static inline void
pause(void)
{
  102cee:	55                   	push   %ebp
  102cef:	89 e5                	mov    %esp,%ebp
	asm volatile("pause" : : : "memory");
  102cf1:	f3 90                	pause  
}
  102cf3:	5d                   	pop    %ebp
  102cf4:	c3                   	ret    

00102cf5 <cpu_cur>:
#define cpu_disabled(c)		0

// Find the CPU struct representing the current CPU.
// It always resides at the bottom of the page containing the CPU's stack.
static inline cpu *
cpu_cur() {
  102cf5:	55                   	push   %ebp
  102cf6:	89 e5                	mov    %esp,%ebp
  102cf8:	83 ec 28             	sub    $0x28,%esp

static gcc_inline uint32_t
read_esp(void)
{
        uint32_t esp;
        __asm __volatile("movl %%esp,%0" : "=rm" (esp));
  102cfb:	89 65 f4             	mov    %esp,-0xc(%ebp)
        return esp;
  102cfe:	8b 45 f4             	mov    -0xc(%ebp),%eax
	cpu *c = (cpu*)ROUNDDOWN(read_esp(), PAGESIZE);
  102d01:	89 45 f0             	mov    %eax,-0x10(%ebp)
  102d04:	8b 45 f0             	mov    -0x10(%ebp),%eax
  102d07:	25 00 f0 ff ff       	and    $0xfffff000,%eax
  102d0c:	89 45 ec             	mov    %eax,-0x14(%ebp)
	assert(c->magic == CPU_MAGIC);
  102d0f:	8b 45 ec             	mov    -0x14(%ebp),%eax
  102d12:	8b 80 b8 00 00 00    	mov    0xb8(%eax),%eax
  102d18:	3d 32 54 76 98       	cmp    $0x98765432,%eax
  102d1d:	74 24                	je     102d43 <cpu_cur+0x4e>
  102d1f:	c7 44 24 0c f4 8c 10 	movl   $0x108cf4,0xc(%esp)
  102d26:	00 
  102d27:	c7 44 24 08 0a 8d 10 	movl   $0x108d0a,0x8(%esp)
  102d2e:	00 
  102d2f:	c7 44 24 04 5c 00 00 	movl   $0x5c,0x4(%esp)
  102d36:	00 
  102d37:	c7 04 24 1f 8d 10 00 	movl   $0x108d1f,(%esp)
  102d3e:	e8 75 d7 ff ff       	call   1004b8 <debug_panic>
	return c;
  102d43:	8b 45 ec             	mov    -0x14(%ebp),%eax
}
  102d46:	c9                   	leave  
  102d47:	c3                   	ret    

00102d48 <spinlock_init_>:



void
spinlock_init_(struct spinlock *lk, const char *file, int line)
{
  102d48:	55                   	push   %ebp
  102d49:	89 e5                	mov    %esp,%ebp
  102d4b:	83 ec 08             	sub    $0x8,%esp
	lk->cpu = NULL;
  102d4e:	8b 45 08             	mov    0x8(%ebp),%eax
  102d51:	c7 40 0c 00 00 00 00 	movl   $0x0,0xc(%eax)
	lk->file = file; /* static string somewhere in memory? */
  102d58:	8b 45 08             	mov    0x8(%ebp),%eax
  102d5b:	8b 55 0c             	mov    0xc(%ebp),%edx
  102d5e:	89 50 04             	mov    %edx,0x4(%eax)
	lk->line = line;
  102d61:	8b 45 08             	mov    0x8(%ebp),%eax
  102d64:	8b 55 10             	mov    0x10(%ebp),%edx
  102d67:	89 50 08             	mov    %edx,0x8(%eax)
	xchg(&(lk->locked), 0);
  102d6a:	8b 45 08             	mov    0x8(%ebp),%eax
  102d6d:	c7 44 24 04 00 00 00 	movl   $0x0,0x4(%esp)
  102d74:	00 
  102d75:	89 04 24             	mov    %eax,(%esp)
  102d78:	e8 57 ff ff ff       	call   102cd4 <xchg>
}
  102d7d:	c9                   	leave  
  102d7e:	c3                   	ret    

00102d7f <spinlock_acquire>:
// Loops (spins) until the lock is acquired.
// Holding a lock for a long time may cause
// other CPUs to waste time spinning to acquire it.
void
spinlock_acquire(struct spinlock *lk)
{
  102d7f:	55                   	push   %ebp
  102d80:	89 e5                	mov    %esp,%ebp
  102d82:	83 ec 28             	sub    $0x28,%esp
	if(spinlock_holding(lk)) panic("cpu already holds lock.\n");
  102d85:	8b 45 08             	mov    0x8(%ebp),%eax
  102d88:	89 04 24             	mov    %eax,(%esp)
  102d8b:	e8 d2 00 00 00       	call   102e62 <spinlock_holding>
  102d90:	85 c0                	test   %eax,%eax
  102d92:	74 23                	je     102db7 <spinlock_acquire+0x38>
  102d94:	c7 44 24 08 2c 8d 10 	movl   $0x108d2c,0x8(%esp)
  102d9b:	00 
  102d9c:	c7 44 24 04 25 00 00 	movl   $0x25,0x4(%esp)
  102da3:	00 
  102da4:	c7 04 24 45 8d 10 00 	movl   $0x108d45,(%esp)
  102dab:	e8 08 d7 ff ff       	call   1004b8 <debug_panic>
	while(xchg(&(lk->locked), 1)) pause();
  102db0:	e8 39 ff ff ff       	call   102cee <pause>
  102db5:	eb 01                	jmp    102db8 <spinlock_acquire+0x39>
  102db7:	90                   	nop
  102db8:	8b 45 08             	mov    0x8(%ebp),%eax
  102dbb:	c7 44 24 04 01 00 00 	movl   $0x1,0x4(%esp)
  102dc2:	00 
  102dc3:	89 04 24             	mov    %eax,(%esp)
  102dc6:	e8 09 ff ff ff       	call   102cd4 <xchg>
  102dcb:	85 c0                	test   %eax,%eax
  102dcd:	75 e1                	jne    102db0 <spinlock_acquire+0x31>
	lk->cpu = cpu_cur();
  102dcf:	e8 21 ff ff ff       	call   102cf5 <cpu_cur>
  102dd4:	8b 55 08             	mov    0x8(%ebp),%edx
  102dd7:	89 42 0c             	mov    %eax,0xc(%edx)
	debug_trace(read_ebp(), lk->eips);
  102dda:	8b 45 08             	mov    0x8(%ebp),%eax
  102ddd:	8d 50 10             	lea    0x10(%eax),%edx

static gcc_inline uint32_t
read_ebp(void)
{
        uint32_t ebp;
        __asm __volatile("movl %%ebp,%0" : "=rm" (ebp));
  102de0:	89 6d f4             	mov    %ebp,-0xc(%ebp)
        return ebp;
  102de3:	8b 45 f4             	mov    -0xc(%ebp),%eax
  102de6:	89 54 24 04          	mov    %edx,0x4(%esp)
  102dea:	89 04 24             	mov    %eax,(%esp)
  102ded:	e8 ce d7 ff ff       	call   1005c0 <debug_trace>
}
  102df2:	c9                   	leave  
  102df3:	c3                   	ret    

00102df4 <spinlock_release>:

// Release the lock.
void
spinlock_release(struct spinlock *lk)
{
  102df4:	55                   	push   %ebp
  102df5:	89 e5                	mov    %esp,%ebp
  102df7:	83 ec 18             	sub    $0x18,%esp
	if(!spinlock_holding(lk)) panic("cpu not holding lock.\n");
  102dfa:	8b 45 08             	mov    0x8(%ebp),%eax
  102dfd:	89 04 24             	mov    %eax,(%esp)
  102e00:	e8 5d 00 00 00       	call   102e62 <spinlock_holding>
  102e05:	85 c0                	test   %eax,%eax
  102e07:	75 1c                	jne    102e25 <spinlock_release+0x31>
  102e09:	c7 44 24 08 55 8d 10 	movl   $0x108d55,0x8(%esp)
  102e10:	00 
  102e11:	c7 44 24 04 2f 00 00 	movl   $0x2f,0x4(%esp)
  102e18:	00 
  102e19:	c7 04 24 45 8d 10 00 	movl   $0x108d45,(%esp)
  102e20:	e8 93 d6 ff ff       	call   1004b8 <debug_panic>
	lk->cpu = NULL;
  102e25:	8b 45 08             	mov    0x8(%ebp),%eax
  102e28:	c7 40 0c 00 00 00 00 	movl   $0x0,0xc(%eax)
	memset(lk->eips, 0, sizeof(lk->eips));
  102e2f:	8b 45 08             	mov    0x8(%ebp),%eax
  102e32:	83 c0 10             	add    $0x10,%eax
  102e35:	c7 44 24 08 28 00 00 	movl   $0x28,0x8(%esp)
  102e3c:	00 
  102e3d:	c7 44 24 04 00 00 00 	movl   $0x0,0x4(%esp)
  102e44:	00 
  102e45:	89 04 24             	mov    %eax,(%esp)
  102e48:	e8 17 50 00 00       	call   107e64 <memset>
	xchg(&(lk->locked), 0);
  102e4d:	8b 45 08             	mov    0x8(%ebp),%eax
  102e50:	c7 44 24 04 00 00 00 	movl   $0x0,0x4(%esp)
  102e57:	00 
  102e58:	89 04 24             	mov    %eax,(%esp)
  102e5b:	e8 74 fe ff ff       	call   102cd4 <xchg>
}
  102e60:	c9                   	leave  
  102e61:	c3                   	ret    

00102e62 <spinlock_holding>:

// Check whether this cpu is holding the lock.
int
spinlock_holding(spinlock *lock)
{
  102e62:	55                   	push   %ebp
  102e63:	89 e5                	mov    %esp,%ebp
  102e65:	53                   	push   %ebx
  102e66:	83 ec 04             	sub    $0x4,%esp
	return lock->locked && (lock->cpu == cpu_cur());
  102e69:	8b 45 08             	mov    0x8(%ebp),%eax
  102e6c:	8b 00                	mov    (%eax),%eax
  102e6e:	85 c0                	test   %eax,%eax
  102e70:	74 16                	je     102e88 <spinlock_holding+0x26>
  102e72:	8b 45 08             	mov    0x8(%ebp),%eax
  102e75:	8b 58 0c             	mov    0xc(%eax),%ebx
  102e78:	e8 78 fe ff ff       	call   102cf5 <cpu_cur>
  102e7d:	39 c3                	cmp    %eax,%ebx
  102e7f:	75 07                	jne    102e88 <spinlock_holding+0x26>
  102e81:	b8 01 00 00 00       	mov    $0x1,%eax
  102e86:	eb 05                	jmp    102e8d <spinlock_holding+0x2b>
  102e88:	b8 00 00 00 00       	mov    $0x0,%eax
}
  102e8d:	83 c4 04             	add    $0x4,%esp
  102e90:	5b                   	pop    %ebx
  102e91:	5d                   	pop    %ebp
  102e92:	c3                   	ret    

00102e93 <spinlock_godeep>:
// Function that simply recurses to a specified depth.
// The useless return value and volatile parameter are
// so GCC doesn't collapse it via tail-call elimination.
int gcc_noinline
spinlock_godeep(volatile int depth, spinlock* lk)
{
  102e93:	55                   	push   %ebp
  102e94:	89 e5                	mov    %esp,%ebp
  102e96:	83 ec 18             	sub    $0x18,%esp
	if (depth==0) { spinlock_acquire(lk); return 1; }
  102e99:	8b 45 08             	mov    0x8(%ebp),%eax
  102e9c:	85 c0                	test   %eax,%eax
  102e9e:	75 12                	jne    102eb2 <spinlock_godeep+0x1f>
  102ea0:	8b 45 0c             	mov    0xc(%ebp),%eax
  102ea3:	89 04 24             	mov    %eax,(%esp)
  102ea6:	e8 d4 fe ff ff       	call   102d7f <spinlock_acquire>
  102eab:	b8 01 00 00 00       	mov    $0x1,%eax
  102eb0:	eb 1b                	jmp    102ecd <spinlock_godeep+0x3a>
	else return spinlock_godeep(depth-1, lk) * depth;
  102eb2:	8b 45 08             	mov    0x8(%ebp),%eax
  102eb5:	8d 50 ff             	lea    -0x1(%eax),%edx
  102eb8:	8b 45 0c             	mov    0xc(%ebp),%eax
  102ebb:	89 44 24 04          	mov    %eax,0x4(%esp)
  102ebf:	89 14 24             	mov    %edx,(%esp)
  102ec2:	e8 cc ff ff ff       	call   102e93 <spinlock_godeep>
  102ec7:	8b 55 08             	mov    0x8(%ebp),%edx
  102eca:	0f af c2             	imul   %edx,%eax
}
  102ecd:	c9                   	leave  
  102ece:	c3                   	ret    

00102ecf <spinlock_check>:

void spinlock_check()
{
  102ecf:	55                   	push   %ebp
  102ed0:	89 e5                	mov    %esp,%ebp
  102ed2:	57                   	push   %edi
  102ed3:	56                   	push   %esi
  102ed4:	53                   	push   %ebx
  102ed5:	83 ec 5c             	sub    $0x5c,%esp
  102ed8:	89 e0                	mov    %esp,%eax
  102eda:	89 45 c4             	mov    %eax,-0x3c(%ebp)
	const int NUMLOCKS=10;
  102edd:	c7 45 d0 0a 00 00 00 	movl   $0xa,-0x30(%ebp)
	const int NUMRUNS=5;
  102ee4:	c7 45 d4 05 00 00 00 	movl   $0x5,-0x2c(%ebp)
	int i,j,run;
	const char* file = "spinlock_check";
  102eeb:	c7 45 e4 6c 8d 10 00 	movl   $0x108d6c,-0x1c(%ebp)
	spinlock locks[NUMLOCKS];
  102ef2:	8b 45 d0             	mov    -0x30(%ebp),%eax
  102ef5:	83 e8 01             	sub    $0x1,%eax
  102ef8:	89 45 c8             	mov    %eax,-0x38(%ebp)
  102efb:	8b 45 d0             	mov    -0x30(%ebp),%eax
  102efe:	ba 00 00 00 00       	mov    $0x0,%edx
  102f03:	89 c1                	mov    %eax,%ecx
  102f05:	80 e5 ff             	and    $0xff,%ch
  102f08:	89 d3                	mov    %edx,%ebx
  102f0a:	83 e3 0f             	and    $0xf,%ebx
  102f0d:	89 c8                	mov    %ecx,%eax
  102f0f:	89 da                	mov    %ebx,%edx
  102f11:	69 da c0 01 00 00    	imul   $0x1c0,%edx,%ebx
  102f17:	6b c8 00             	imul   $0x0,%eax,%ecx
  102f1a:	01 cb                	add    %ecx,%ebx
  102f1c:	b9 c0 01 00 00       	mov    $0x1c0,%ecx
  102f21:	f7 e1                	mul    %ecx
  102f23:	01 d3                	add    %edx,%ebx
  102f25:	89 da                	mov    %ebx,%edx
  102f27:	89 c6                	mov    %eax,%esi
  102f29:	83 e6 ff             	and    $0xffffffff,%esi
  102f2c:	89 d7                	mov    %edx,%edi
  102f2e:	83 e7 0f             	and    $0xf,%edi
  102f31:	89 f0                	mov    %esi,%eax
  102f33:	89 fa                	mov    %edi,%edx
  102f35:	8b 45 d0             	mov    -0x30(%ebp),%eax
  102f38:	c1 e0 03             	shl    $0x3,%eax
  102f3b:	8b 45 d0             	mov    -0x30(%ebp),%eax
  102f3e:	ba 00 00 00 00       	mov    $0x0,%edx
  102f43:	89 c1                	mov    %eax,%ecx
  102f45:	80 e5 ff             	and    $0xff,%ch
  102f48:	89 4d b8             	mov    %ecx,-0x48(%ebp)
  102f4b:	89 d3                	mov    %edx,%ebx
  102f4d:	83 e3 0f             	and    $0xf,%ebx
  102f50:	89 5d bc             	mov    %ebx,-0x44(%ebp)
  102f53:	8b 45 b8             	mov    -0x48(%ebp),%eax
  102f56:	8b 55 bc             	mov    -0x44(%ebp),%edx
  102f59:	69 ca c0 01 00 00    	imul   $0x1c0,%edx,%ecx
  102f5f:	6b d8 00             	imul   $0x0,%eax,%ebx
  102f62:	01 d9                	add    %ebx,%ecx
  102f64:	bb c0 01 00 00       	mov    $0x1c0,%ebx
  102f69:	f7 e3                	mul    %ebx
  102f6b:	01 d1                	add    %edx,%ecx
  102f6d:	89 ca                	mov    %ecx,%edx
  102f6f:	89 c1                	mov    %eax,%ecx
  102f71:	80 e5 ff             	and    $0xff,%ch
  102f74:	89 4d b0             	mov    %ecx,-0x50(%ebp)
  102f77:	89 d3                	mov    %edx,%ebx
  102f79:	83 e3 0f             	and    $0xf,%ebx
  102f7c:	89 5d b4             	mov    %ebx,-0x4c(%ebp)
  102f7f:	8b 45 b0             	mov    -0x50(%ebp),%eax
  102f82:	8b 55 b4             	mov    -0x4c(%ebp),%edx
  102f85:	8b 45 d0             	mov    -0x30(%ebp),%eax
  102f88:	c1 e0 03             	shl    $0x3,%eax
  102f8b:	8d 14 c5 00 00 00 00 	lea    0x0(,%eax,8),%edx
  102f92:	89 d1                	mov    %edx,%ecx
  102f94:	29 c1                	sub    %eax,%ecx
  102f96:	89 c8                	mov    %ecx,%eax
  102f98:	83 c0 0f             	add    $0xf,%eax
  102f9b:	83 c0 0f             	add    $0xf,%eax
  102f9e:	c1 e8 04             	shr    $0x4,%eax
  102fa1:	c1 e0 04             	shl    $0x4,%eax
  102fa4:	29 c4                	sub    %eax,%esp
  102fa6:	8d 44 24 10          	lea    0x10(%esp),%eax
  102faa:	83 c0 0f             	add    $0xf,%eax
  102fad:	c1 e8 04             	shr    $0x4,%eax
  102fb0:	c1 e0 04             	shl    $0x4,%eax
  102fb3:	89 45 cc             	mov    %eax,-0x34(%ebp)

	// Initialize the locks
	for(i=0;i<NUMLOCKS;i++) spinlock_init_(&locks[i], file, 0);
  102fb6:	c7 45 d8 00 00 00 00 	movl   $0x0,-0x28(%ebp)
  102fbd:	eb 33                	jmp    102ff2 <spinlock_check+0x123>
  102fbf:	8b 55 cc             	mov    -0x34(%ebp),%edx
  102fc2:	8b 45 d8             	mov    -0x28(%ebp),%eax
  102fc5:	c1 e0 03             	shl    $0x3,%eax
  102fc8:	8d 0c c5 00 00 00 00 	lea    0x0(,%eax,8),%ecx
  102fcf:	89 cb                	mov    %ecx,%ebx
  102fd1:	29 c3                	sub    %eax,%ebx
  102fd3:	89 d8                	mov    %ebx,%eax
  102fd5:	01 c2                	add    %eax,%edx
  102fd7:	c7 44 24 08 00 00 00 	movl   $0x0,0x8(%esp)
  102fde:	00 
  102fdf:	8b 45 e4             	mov    -0x1c(%ebp),%eax
  102fe2:	89 44 24 04          	mov    %eax,0x4(%esp)
  102fe6:	89 14 24             	mov    %edx,(%esp)
  102fe9:	e8 5a fd ff ff       	call   102d48 <spinlock_init_>
  102fee:	83 45 d8 01          	addl   $0x1,-0x28(%ebp)
  102ff2:	8b 45 d8             	mov    -0x28(%ebp),%eax
  102ff5:	3b 45 d0             	cmp    -0x30(%ebp),%eax
  102ff8:	7c c5                	jl     102fbf <spinlock_check+0xf0>
	// Make sure that all locks have CPU set to NULL initially
	for(i=0;i<NUMLOCKS;i++) assert(locks[i].cpu==NULL);
  102ffa:	c7 45 d8 00 00 00 00 	movl   $0x0,-0x28(%ebp)
  103001:	eb 46                	jmp    103049 <spinlock_check+0x17a>
  103003:	8b 45 d8             	mov    -0x28(%ebp),%eax
  103006:	8b 4d cc             	mov    -0x34(%ebp),%ecx
  103009:	c1 e0 03             	shl    $0x3,%eax
  10300c:	8d 14 c5 00 00 00 00 	lea    0x0(,%eax,8),%edx
  103013:	29 c2                	sub    %eax,%edx
  103015:	8d 04 11             	lea    (%ecx,%edx,1),%eax
  103018:	83 c0 0c             	add    $0xc,%eax
  10301b:	8b 00                	mov    (%eax),%eax
  10301d:	85 c0                	test   %eax,%eax
  10301f:	74 24                	je     103045 <spinlock_check+0x176>
  103021:	c7 44 24 0c 7b 8d 10 	movl   $0x108d7b,0xc(%esp)
  103028:	00 
  103029:	c7 44 24 08 0a 8d 10 	movl   $0x108d0a,0x8(%esp)
  103030:	00 
  103031:	c7 44 24 04 51 00 00 	movl   $0x51,0x4(%esp)
  103038:	00 
  103039:	c7 04 24 45 8d 10 00 	movl   $0x108d45,(%esp)
  103040:	e8 73 d4 ff ff       	call   1004b8 <debug_panic>
  103045:	83 45 d8 01          	addl   $0x1,-0x28(%ebp)
  103049:	8b 45 d8             	mov    -0x28(%ebp),%eax
  10304c:	3b 45 d0             	cmp    -0x30(%ebp),%eax
  10304f:	7c b2                	jl     103003 <spinlock_check+0x134>
	// Make sure that all locks have the correct debug info.
	for(i=0;i<NUMLOCKS;i++) assert(locks[i].file==file);
  103051:	c7 45 d8 00 00 00 00 	movl   $0x0,-0x28(%ebp)
  103058:	eb 47                	jmp    1030a1 <spinlock_check+0x1d2>
  10305a:	8b 45 d8             	mov    -0x28(%ebp),%eax
  10305d:	8b 4d cc             	mov    -0x34(%ebp),%ecx
  103060:	c1 e0 03             	shl    $0x3,%eax
  103063:	8d 14 c5 00 00 00 00 	lea    0x0(,%eax,8),%edx
  10306a:	29 c2                	sub    %eax,%edx
  10306c:	8d 04 11             	lea    (%ecx,%edx,1),%eax
  10306f:	83 c0 04             	add    $0x4,%eax
  103072:	8b 00                	mov    (%eax),%eax
  103074:	3b 45 e4             	cmp    -0x1c(%ebp),%eax
  103077:	74 24                	je     10309d <spinlock_check+0x1ce>
  103079:	c7 44 24 0c 8e 8d 10 	movl   $0x108d8e,0xc(%esp)
  103080:	00 
  103081:	c7 44 24 08 0a 8d 10 	movl   $0x108d0a,0x8(%esp)
  103088:	00 
  103089:	c7 44 24 04 53 00 00 	movl   $0x53,0x4(%esp)
  103090:	00 
  103091:	c7 04 24 45 8d 10 00 	movl   $0x108d45,(%esp)
  103098:	e8 1b d4 ff ff       	call   1004b8 <debug_panic>
  10309d:	83 45 d8 01          	addl   $0x1,-0x28(%ebp)
  1030a1:	8b 45 d8             	mov    -0x28(%ebp),%eax
  1030a4:	3b 45 d0             	cmp    -0x30(%ebp),%eax
  1030a7:	7c b1                	jl     10305a <spinlock_check+0x18b>

	for (run=0;run<NUMRUNS;run++) 
  1030a9:	c7 45 e0 00 00 00 00 	movl   $0x0,-0x20(%ebp)
  1030b0:	e9 12 03 00 00       	jmp    1033c7 <spinlock_check+0x4f8>
	{
		// Lock all locks
		for(i=0;i<NUMLOCKS;i++)
  1030b5:	c7 45 d8 00 00 00 00 	movl   $0x0,-0x28(%ebp)
  1030bc:	eb 2c                	jmp    1030ea <spinlock_check+0x21b>
			spinlock_godeep(i, &locks[i]);
  1030be:	8b 55 cc             	mov    -0x34(%ebp),%edx
  1030c1:	8b 45 d8             	mov    -0x28(%ebp),%eax
  1030c4:	c1 e0 03             	shl    $0x3,%eax
  1030c7:	8d 0c c5 00 00 00 00 	lea    0x0(,%eax,8),%ecx
  1030ce:	89 cb                	mov    %ecx,%ebx
  1030d0:	29 c3                	sub    %eax,%ebx
  1030d2:	89 d8                	mov    %ebx,%eax
  1030d4:	8d 04 02             	lea    (%edx,%eax,1),%eax
  1030d7:	89 44 24 04          	mov    %eax,0x4(%esp)
  1030db:	8b 45 d8             	mov    -0x28(%ebp),%eax
  1030de:	89 04 24             	mov    %eax,(%esp)
  1030e1:	e8 ad fd ff ff       	call   102e93 <spinlock_godeep>
	for(i=0;i<NUMLOCKS;i++) assert(locks[i].file==file);

	for (run=0;run<NUMRUNS;run++) 
	{
		// Lock all locks
		for(i=0;i<NUMLOCKS;i++)
  1030e6:	83 45 d8 01          	addl   $0x1,-0x28(%ebp)
  1030ea:	8b 45 d8             	mov    -0x28(%ebp),%eax
  1030ed:	3b 45 d0             	cmp    -0x30(%ebp),%eax
  1030f0:	7c cc                	jl     1030be <spinlock_check+0x1ef>
			spinlock_godeep(i, &locks[i]);

		// Make sure that all locks have the right CPU
		for(i=0;i<NUMLOCKS;i++)
  1030f2:	c7 45 d8 00 00 00 00 	movl   $0x0,-0x28(%ebp)
  1030f9:	eb 4b                	jmp    103146 <spinlock_check+0x277>
			assert(locks[i].cpu == cpu_cur());
  1030fb:	8b 45 d8             	mov    -0x28(%ebp),%eax
  1030fe:	8b 4d cc             	mov    -0x34(%ebp),%ecx
  103101:	c1 e0 03             	shl    $0x3,%eax
  103104:	8d 14 c5 00 00 00 00 	lea    0x0(,%eax,8),%edx
  10310b:	29 c2                	sub    %eax,%edx
  10310d:	8d 04 11             	lea    (%ecx,%edx,1),%eax
  103110:	83 c0 0c             	add    $0xc,%eax
  103113:	8b 18                	mov    (%eax),%ebx
  103115:	e8 db fb ff ff       	call   102cf5 <cpu_cur>
  10311a:	39 c3                	cmp    %eax,%ebx
  10311c:	74 24                	je     103142 <spinlock_check+0x273>
  10311e:	c7 44 24 0c a2 8d 10 	movl   $0x108da2,0xc(%esp)
  103125:	00 
  103126:	c7 44 24 08 0a 8d 10 	movl   $0x108d0a,0x8(%esp)
  10312d:	00 
  10312e:	c7 44 24 04 5d 00 00 	movl   $0x5d,0x4(%esp)
  103135:	00 
  103136:	c7 04 24 45 8d 10 00 	movl   $0x108d45,(%esp)
  10313d:	e8 76 d3 ff ff       	call   1004b8 <debug_panic>
		// Lock all locks
		for(i=0;i<NUMLOCKS;i++)
			spinlock_godeep(i, &locks[i]);

		// Make sure that all locks have the right CPU
		for(i=0;i<NUMLOCKS;i++)
  103142:	83 45 d8 01          	addl   $0x1,-0x28(%ebp)
  103146:	8b 45 d8             	mov    -0x28(%ebp),%eax
  103149:	3b 45 d0             	cmp    -0x30(%ebp),%eax
  10314c:	7c ad                	jl     1030fb <spinlock_check+0x22c>
			assert(locks[i].cpu == cpu_cur());
		// Make sure that all locks have holding correctly implemented.
		for(i=0;i<NUMLOCKS;i++)
  10314e:	c7 45 d8 00 00 00 00 	movl   $0x0,-0x28(%ebp)
  103155:	eb 4d                	jmp    1031a4 <spinlock_check+0x2d5>
			assert(spinlock_holding(&locks[i]) != 0);
  103157:	8b 55 cc             	mov    -0x34(%ebp),%edx
  10315a:	8b 45 d8             	mov    -0x28(%ebp),%eax
  10315d:	c1 e0 03             	shl    $0x3,%eax
  103160:	8d 0c c5 00 00 00 00 	lea    0x0(,%eax,8),%ecx
  103167:	89 cb                	mov    %ecx,%ebx
  103169:	29 c3                	sub    %eax,%ebx
  10316b:	89 d8                	mov    %ebx,%eax
  10316d:	8d 04 02             	lea    (%edx,%eax,1),%eax
  103170:	89 04 24             	mov    %eax,(%esp)
  103173:	e8 ea fc ff ff       	call   102e62 <spinlock_holding>
  103178:	85 c0                	test   %eax,%eax
  10317a:	75 24                	jne    1031a0 <spinlock_check+0x2d1>
  10317c:	c7 44 24 0c bc 8d 10 	movl   $0x108dbc,0xc(%esp)
  103183:	00 
  103184:	c7 44 24 08 0a 8d 10 	movl   $0x108d0a,0x8(%esp)
  10318b:	00 
  10318c:	c7 44 24 04 60 00 00 	movl   $0x60,0x4(%esp)
  103193:	00 
  103194:	c7 04 24 45 8d 10 00 	movl   $0x108d45,(%esp)
  10319b:	e8 18 d3 ff ff       	call   1004b8 <debug_panic>

		// Make sure that all locks have the right CPU
		for(i=0;i<NUMLOCKS;i++)
			assert(locks[i].cpu == cpu_cur());
		// Make sure that all locks have holding correctly implemented.
		for(i=0;i<NUMLOCKS;i++)
  1031a0:	83 45 d8 01          	addl   $0x1,-0x28(%ebp)
  1031a4:	8b 45 d8             	mov    -0x28(%ebp),%eax
  1031a7:	3b 45 d0             	cmp    -0x30(%ebp),%eax
  1031aa:	7c ab                	jl     103157 <spinlock_check+0x288>
			assert(spinlock_holding(&locks[i]) != 0);
		// Make sure that top i frames are somewhere in godeep.
		for(i=0;i<NUMLOCKS;i++) 
  1031ac:	c7 45 d8 00 00 00 00 	movl   $0x0,-0x28(%ebp)
  1031b3:	e9 bd 00 00 00       	jmp    103275 <spinlock_check+0x3a6>
		{
			for(j=0; j<=i && j < DEBUG_TRACEFRAMES ; j++) 
  1031b8:	c7 45 dc 00 00 00 00 	movl   $0x0,-0x24(%ebp)
  1031bf:	e9 9b 00 00 00       	jmp    10325f <spinlock_check+0x390>
			{
				assert(locks[i].eips[j] >=
  1031c4:	8b 45 d8             	mov    -0x28(%ebp),%eax
  1031c7:	8b 5d dc             	mov    -0x24(%ebp),%ebx
  1031ca:	8b 4d cc             	mov    -0x34(%ebp),%ecx
  1031cd:	01 c0                	add    %eax,%eax
  1031cf:	8d 14 c5 00 00 00 00 	lea    0x0(,%eax,8),%edx
  1031d6:	29 c2                	sub    %eax,%edx
  1031d8:	8d 04 1a             	lea    (%edx,%ebx,1),%eax
  1031db:	83 c0 04             	add    $0x4,%eax
  1031de:	8b 14 81             	mov    (%ecx,%eax,4),%edx
  1031e1:	b8 93 2e 10 00       	mov    $0x102e93,%eax
  1031e6:	39 c2                	cmp    %eax,%edx
  1031e8:	73 24                	jae    10320e <spinlock_check+0x33f>
  1031ea:	c7 44 24 0c e0 8d 10 	movl   $0x108de0,0xc(%esp)
  1031f1:	00 
  1031f2:	c7 44 24 08 0a 8d 10 	movl   $0x108d0a,0x8(%esp)
  1031f9:	00 
  1031fa:	c7 44 24 04 67 00 00 	movl   $0x67,0x4(%esp)
  103201:	00 
  103202:	c7 04 24 45 8d 10 00 	movl   $0x108d45,(%esp)
  103209:	e8 aa d2 ff ff       	call   1004b8 <debug_panic>
					(uint32_t)spinlock_godeep);
				assert(locks[i].eips[j] <
  10320e:	8b 45 d8             	mov    -0x28(%ebp),%eax
  103211:	8b 5d dc             	mov    -0x24(%ebp),%ebx
  103214:	8b 4d cc             	mov    -0x34(%ebp),%ecx
  103217:	01 c0                	add    %eax,%eax
  103219:	8d 14 c5 00 00 00 00 	lea    0x0(,%eax,8),%edx
  103220:	29 c2                	sub    %eax,%edx
  103222:	8d 04 1a             	lea    (%edx,%ebx,1),%eax
  103225:	83 c0 04             	add    $0x4,%eax
  103228:	8b 04 81             	mov    (%ecx,%eax,4),%eax
  10322b:	ba 93 2e 10 00       	mov    $0x102e93,%edx
  103230:	83 c2 64             	add    $0x64,%edx
  103233:	39 d0                	cmp    %edx,%eax
  103235:	72 24                	jb     10325b <spinlock_check+0x38c>
  103237:	c7 44 24 0c 10 8e 10 	movl   $0x108e10,0xc(%esp)
  10323e:	00 
  10323f:	c7 44 24 08 0a 8d 10 	movl   $0x108d0a,0x8(%esp)
  103246:	00 
  103247:	c7 44 24 04 69 00 00 	movl   $0x69,0x4(%esp)
  10324e:	00 
  10324f:	c7 04 24 45 8d 10 00 	movl   $0x108d45,(%esp)
  103256:	e8 5d d2 ff ff       	call   1004b8 <debug_panic>
		for(i=0;i<NUMLOCKS;i++)
			assert(spinlock_holding(&locks[i]) != 0);
		// Make sure that top i frames are somewhere in godeep.
		for(i=0;i<NUMLOCKS;i++) 
		{
			for(j=0; j<=i && j < DEBUG_TRACEFRAMES ; j++) 
  10325b:	83 45 dc 01          	addl   $0x1,-0x24(%ebp)
  10325f:	8b 45 dc             	mov    -0x24(%ebp),%eax
  103262:	3b 45 d8             	cmp    -0x28(%ebp),%eax
  103265:	7f 0a                	jg     103271 <spinlock_check+0x3a2>
  103267:	83 7d dc 09          	cmpl   $0x9,-0x24(%ebp)
  10326b:	0f 8e 53 ff ff ff    	jle    1031c4 <spinlock_check+0x2f5>
			assert(locks[i].cpu == cpu_cur());
		// Make sure that all locks have holding correctly implemented.
		for(i=0;i<NUMLOCKS;i++)
			assert(spinlock_holding(&locks[i]) != 0);
		// Make sure that top i frames are somewhere in godeep.
		for(i=0;i<NUMLOCKS;i++) 
  103271:	83 45 d8 01          	addl   $0x1,-0x28(%ebp)
  103275:	8b 45 d8             	mov    -0x28(%ebp),%eax
  103278:	3b 45 d0             	cmp    -0x30(%ebp),%eax
  10327b:	0f 8c 37 ff ff ff    	jl     1031b8 <spinlock_check+0x2e9>
					(uint32_t)spinlock_godeep+100);
			}
		}

		// Release all locks
		for(i=0;i<NUMLOCKS;i++) spinlock_release(&locks[i]);
  103281:	c7 45 d8 00 00 00 00 	movl   $0x0,-0x28(%ebp)
  103288:	eb 25                	jmp    1032af <spinlock_check+0x3e0>
  10328a:	8b 55 cc             	mov    -0x34(%ebp),%edx
  10328d:	8b 45 d8             	mov    -0x28(%ebp),%eax
  103290:	c1 e0 03             	shl    $0x3,%eax
  103293:	8d 0c c5 00 00 00 00 	lea    0x0(,%eax,8),%ecx
  10329a:	89 cb                	mov    %ecx,%ebx
  10329c:	29 c3                	sub    %eax,%ebx
  10329e:	89 d8                	mov    %ebx,%eax
  1032a0:	8d 04 02             	lea    (%edx,%eax,1),%eax
  1032a3:	89 04 24             	mov    %eax,(%esp)
  1032a6:	e8 49 fb ff ff       	call   102df4 <spinlock_release>
  1032ab:	83 45 d8 01          	addl   $0x1,-0x28(%ebp)
  1032af:	8b 45 d8             	mov    -0x28(%ebp),%eax
  1032b2:	3b 45 d0             	cmp    -0x30(%ebp),%eax
  1032b5:	7c d3                	jl     10328a <spinlock_check+0x3bb>
		// Make sure that the CPU has been cleared
		for(i=0;i<NUMLOCKS;i++) assert(locks[i].cpu == NULL);
  1032b7:	c7 45 d8 00 00 00 00 	movl   $0x0,-0x28(%ebp)
  1032be:	eb 46                	jmp    103306 <spinlock_check+0x437>
  1032c0:	8b 45 d8             	mov    -0x28(%ebp),%eax
  1032c3:	8b 4d cc             	mov    -0x34(%ebp),%ecx
  1032c6:	c1 e0 03             	shl    $0x3,%eax
  1032c9:	8d 14 c5 00 00 00 00 	lea    0x0(,%eax,8),%edx
  1032d0:	29 c2                	sub    %eax,%edx
  1032d2:	8d 04 11             	lea    (%ecx,%edx,1),%eax
  1032d5:	83 c0 0c             	add    $0xc,%eax
  1032d8:	8b 00                	mov    (%eax),%eax
  1032da:	85 c0                	test   %eax,%eax
  1032dc:	74 24                	je     103302 <spinlock_check+0x433>
  1032de:	c7 44 24 0c 41 8e 10 	movl   $0x108e41,0xc(%esp)
  1032e5:	00 
  1032e6:	c7 44 24 08 0a 8d 10 	movl   $0x108d0a,0x8(%esp)
  1032ed:	00 
  1032ee:	c7 44 24 04 70 00 00 	movl   $0x70,0x4(%esp)
  1032f5:	00 
  1032f6:	c7 04 24 45 8d 10 00 	movl   $0x108d45,(%esp)
  1032fd:	e8 b6 d1 ff ff       	call   1004b8 <debug_panic>
  103302:	83 45 d8 01          	addl   $0x1,-0x28(%ebp)
  103306:	8b 45 d8             	mov    -0x28(%ebp),%eax
  103309:	3b 45 d0             	cmp    -0x30(%ebp),%eax
  10330c:	7c b2                	jl     1032c0 <spinlock_check+0x3f1>
		for(i=0;i<NUMLOCKS;i++) assert(locks[i].eips[0]==0);
  10330e:	c7 45 d8 00 00 00 00 	movl   $0x0,-0x28(%ebp)
  103315:	eb 46                	jmp    10335d <spinlock_check+0x48e>
  103317:	8b 45 d8             	mov    -0x28(%ebp),%eax
  10331a:	8b 4d cc             	mov    -0x34(%ebp),%ecx
  10331d:	c1 e0 03             	shl    $0x3,%eax
  103320:	8d 14 c5 00 00 00 00 	lea    0x0(,%eax,8),%edx
  103327:	29 c2                	sub    %eax,%edx
  103329:	8d 04 11             	lea    (%ecx,%edx,1),%eax
  10332c:	83 c0 10             	add    $0x10,%eax
  10332f:	8b 00                	mov    (%eax),%eax
  103331:	85 c0                	test   %eax,%eax
  103333:	74 24                	je     103359 <spinlock_check+0x48a>
  103335:	c7 44 24 0c 56 8e 10 	movl   $0x108e56,0xc(%esp)
  10333c:	00 
  10333d:	c7 44 24 08 0a 8d 10 	movl   $0x108d0a,0x8(%esp)
  103344:	00 
  103345:	c7 44 24 04 71 00 00 	movl   $0x71,0x4(%esp)
  10334c:	00 
  10334d:	c7 04 24 45 8d 10 00 	movl   $0x108d45,(%esp)
  103354:	e8 5f d1 ff ff       	call   1004b8 <debug_panic>
  103359:	83 45 d8 01          	addl   $0x1,-0x28(%ebp)
  10335d:	8b 45 d8             	mov    -0x28(%ebp),%eax
  103360:	3b 45 d0             	cmp    -0x30(%ebp),%eax
  103363:	7c b2                	jl     103317 <spinlock_check+0x448>
		// Make sure that all locks have holding correctly implemented.
		for(i=0;i<NUMLOCKS;i++) assert(spinlock_holding(&locks[i]) == 0);
  103365:	c7 45 d8 00 00 00 00 	movl   $0x0,-0x28(%ebp)
  10336c:	eb 4d                	jmp    1033bb <spinlock_check+0x4ec>
  10336e:	8b 55 cc             	mov    -0x34(%ebp),%edx
  103371:	8b 45 d8             	mov    -0x28(%ebp),%eax
  103374:	c1 e0 03             	shl    $0x3,%eax
  103377:	8d 0c c5 00 00 00 00 	lea    0x0(,%eax,8),%ecx
  10337e:	89 cb                	mov    %ecx,%ebx
  103380:	29 c3                	sub    %eax,%ebx
  103382:	89 d8                	mov    %ebx,%eax
  103384:	8d 04 02             	lea    (%edx,%eax,1),%eax
  103387:	89 04 24             	mov    %eax,(%esp)
  10338a:	e8 d3 fa ff ff       	call   102e62 <spinlock_holding>
  10338f:	85 c0                	test   %eax,%eax
  103391:	74 24                	je     1033b7 <spinlock_check+0x4e8>
  103393:	c7 44 24 0c 6c 8e 10 	movl   $0x108e6c,0xc(%esp)
  10339a:	00 
  10339b:	c7 44 24 08 0a 8d 10 	movl   $0x108d0a,0x8(%esp)
  1033a2:	00 
  1033a3:	c7 44 24 04 73 00 00 	movl   $0x73,0x4(%esp)
  1033aa:	00 
  1033ab:	c7 04 24 45 8d 10 00 	movl   $0x108d45,(%esp)
  1033b2:	e8 01 d1 ff ff       	call   1004b8 <debug_panic>
  1033b7:	83 45 d8 01          	addl   $0x1,-0x28(%ebp)
  1033bb:	8b 45 d8             	mov    -0x28(%ebp),%eax
  1033be:	3b 45 d0             	cmp    -0x30(%ebp),%eax
  1033c1:	7c ab                	jl     10336e <spinlock_check+0x49f>
	// Make sure that all locks have CPU set to NULL initially
	for(i=0;i<NUMLOCKS;i++) assert(locks[i].cpu==NULL);
	// Make sure that all locks have the correct debug info.
	for(i=0;i<NUMLOCKS;i++) assert(locks[i].file==file);

	for (run=0;run<NUMRUNS;run++) 
  1033c3:	83 45 e0 01          	addl   $0x1,-0x20(%ebp)
  1033c7:	8b 45 e0             	mov    -0x20(%ebp),%eax
  1033ca:	3b 45 d4             	cmp    -0x2c(%ebp),%eax
  1033cd:	0f 8c e2 fc ff ff    	jl     1030b5 <spinlock_check+0x1e6>
		for(i=0;i<NUMLOCKS;i++) assert(locks[i].cpu == NULL);
		for(i=0;i<NUMLOCKS;i++) assert(locks[i].eips[0]==0);
		// Make sure that all locks have holding correctly implemented.
		for(i=0;i<NUMLOCKS;i++) assert(spinlock_holding(&locks[i]) == 0);
	}
	cprintf("spinlock_check() succeeded!\n");
  1033d3:	c7 04 24 8d 8e 10 00 	movl   $0x108e8d,(%esp)
  1033da:	e8 9e 48 00 00       	call   107c7d <cprintf>
  1033df:	8b 65 c4             	mov    -0x3c(%ebp),%esp
}
  1033e2:	8d 65 f4             	lea    -0xc(%ebp),%esp
  1033e5:	83 c4 00             	add    $0x0,%esp
  1033e8:	5b                   	pop    %ebx
  1033e9:	5e                   	pop    %esi
  1033ea:	5f                   	pop    %edi
  1033eb:	5d                   	pop    %ebp
  1033ec:	c3                   	ret    
  1033ed:	90                   	nop
  1033ee:	90                   	nop
  1033ef:	90                   	nop

001033f0 <xchg>:
}

// Atomically set *addr to newval and return the old value of *addr.
static inline uint32_t
xchg(volatile uint32_t *addr, uint32_t newval)
{
  1033f0:	55                   	push   %ebp
  1033f1:	89 e5                	mov    %esp,%ebp
  1033f3:	83 ec 10             	sub    $0x10,%esp
	uint32_t result;

	// The + in "+m" denotes a read-modify-write operand.
	asm volatile("lock; xchgl %0, %1" :
  1033f6:	8b 55 08             	mov    0x8(%ebp),%edx
  1033f9:	8b 45 0c             	mov    0xc(%ebp),%eax
  1033fc:	8b 4d 08             	mov    0x8(%ebp),%ecx
  1033ff:	f0 87 02             	lock xchg %eax,(%edx)
  103402:	89 45 fc             	mov    %eax,-0x4(%ebp)
	       "+m" (*addr), "=a" (result) :
	       "1" (newval) :
	       "cc");
	return result;
  103405:	8b 45 fc             	mov    -0x4(%ebp),%eax
}
  103408:	c9                   	leave  
  103409:	c3                   	ret    

0010340a <lockadd>:

// Atomically add incr to *addr.
static inline void
lockadd(volatile int32_t *addr, int32_t incr)
{
  10340a:	55                   	push   %ebp
  10340b:	89 e5                	mov    %esp,%ebp
	asm volatile("lock; addl %1,%0" : "+m" (*addr) : "r" (incr) : "cc");
  10340d:	8b 45 08             	mov    0x8(%ebp),%eax
  103410:	8b 55 0c             	mov    0xc(%ebp),%edx
  103413:	8b 4d 08             	mov    0x8(%ebp),%ecx
  103416:	f0 01 10             	lock add %edx,(%eax)
}
  103419:	5d                   	pop    %ebp
  10341a:	c3                   	ret    

0010341b <pause>:
	return result;
}

static inline void
pause(void)
{
  10341b:	55                   	push   %ebp
  10341c:	89 e5                	mov    %esp,%ebp
	asm volatile("pause" : : : "memory");
  10341e:	f3 90                	pause  
}
  103420:	5d                   	pop    %ebp
  103421:	c3                   	ret    

00103422 <cpu_cur>:
#define cpu_disabled(c)		0

// Find the CPU struct representing the current CPU.
// It always resides at the bottom of the page containing the CPU's stack.
static inline cpu *
cpu_cur() {
  103422:	55                   	push   %ebp
  103423:	89 e5                	mov    %esp,%ebp
  103425:	83 ec 28             	sub    $0x28,%esp

static gcc_inline uint32_t
read_esp(void)
{
        uint32_t esp;
        __asm __volatile("movl %%esp,%0" : "=rm" (esp));
  103428:	89 65 f4             	mov    %esp,-0xc(%ebp)
        return esp;
  10342b:	8b 45 f4             	mov    -0xc(%ebp),%eax
	cpu *c = (cpu*)ROUNDDOWN(read_esp(), PAGESIZE);
  10342e:	89 45 f0             	mov    %eax,-0x10(%ebp)
  103431:	8b 45 f0             	mov    -0x10(%ebp),%eax
  103434:	25 00 f0 ff ff       	and    $0xfffff000,%eax
  103439:	89 45 ec             	mov    %eax,-0x14(%ebp)
	assert(c->magic == CPU_MAGIC);
  10343c:	8b 45 ec             	mov    -0x14(%ebp),%eax
  10343f:	8b 80 b8 00 00 00    	mov    0xb8(%eax),%eax
  103445:	3d 32 54 76 98       	cmp    $0x98765432,%eax
  10344a:	74 24                	je     103470 <cpu_cur+0x4e>
  10344c:	c7 44 24 0c ac 8e 10 	movl   $0x108eac,0xc(%esp)
  103453:	00 
  103454:	c7 44 24 08 c2 8e 10 	movl   $0x108ec2,0x8(%esp)
  10345b:	00 
  10345c:	c7 44 24 04 5c 00 00 	movl   $0x5c,0x4(%esp)
  103463:	00 
  103464:	c7 04 24 d7 8e 10 00 	movl   $0x108ed7,(%esp)
  10346b:	e8 48 d0 ff ff       	call   1004b8 <debug_panic>
	return c;
  103470:	8b 45 ec             	mov    -0x14(%ebp),%eax
}
  103473:	c9                   	leave  
  103474:	c3                   	ret    

00103475 <cpu_onboot>:

// Returns true if we're running on the bootstrap CPU.
static inline int
cpu_onboot() {
  103475:	55                   	push   %ebp
  103476:	89 e5                	mov    %esp,%ebp
  103478:	83 ec 08             	sub    $0x8,%esp
	return cpu_cur() == &cpu_boot;
  10347b:	e8 a2 ff ff ff       	call   103422 <cpu_cur>
  103480:	3d 00 b0 10 00       	cmp    $0x10b000,%eax
  103485:	0f 94 c0             	sete   %al
  103488:	0f b6 c0             	movzbl %al,%eax
}
  10348b:	c9                   	leave  
  10348c:	c3                   	ret    

0010348d <proc_init>:
proc* proc_last;


void
proc_init(void)
{
  10348d:	55                   	push   %ebp
  10348e:	89 e5                	mov    %esp,%ebp
  103490:	83 ec 18             	sub    $0x18,%esp
	if (!cpu_onboot())
  103493:	e8 dd ff ff ff       	call   103475 <cpu_onboot>
  103498:	85 c0                	test   %eax,%eax
  10349a:	74 32                	je     1034ce <proc_init+0x41>
		return;

	spinlock_init(&proc_lock);
  10349c:	c7 44 24 08 25 00 00 	movl   $0x25,0x8(%esp)
  1034a3:	00 
  1034a4:	c7 44 24 04 e4 8e 10 	movl   $0x108ee4,0x4(%esp)
  1034ab:	00 
  1034ac:	c7 04 24 00 f4 11 00 	movl   $0x11f400,(%esp)
  1034b3:	e8 90 f8 ff ff       	call   102d48 <spinlock_init_>
	proc_first = NULL;
  1034b8:	c7 05 f4 f3 11 00 00 	movl   $0x0,0x11f3f4
  1034bf:	00 00 00 
	proc_last = NULL;
  1034c2:	c7 05 f8 f3 11 00 00 	movl   $0x0,0x11f3f8
  1034c9:	00 00 00 
  1034cc:	eb 01                	jmp    1034cf <proc_init+0x42>

void
proc_init(void)
{
	if (!cpu_onboot())
		return;
  1034ce:	90                   	nop

	spinlock_init(&proc_lock);
	proc_first = NULL;
	proc_last = NULL;
}
  1034cf:	c9                   	leave  
  1034d0:	c3                   	ret    

001034d1 <proc_alloc>:

// Allocate and initialize a new proc as child 'cn' of parent 'p'.
// Returns NULL if no physical memory available.
proc *
proc_alloc(proc *p, uint32_t cn)
{
  1034d1:	55                   	push   %ebp
  1034d2:	89 e5                	mov    %esp,%ebp
  1034d4:	83 ec 28             	sub    $0x28,%esp
	pageinfo *pi = mem_alloc();
  1034d7:	e8 7d d7 ff ff       	call   100c59 <mem_alloc>
  1034dc:	89 45 ec             	mov    %eax,-0x14(%ebp)
	if (!pi)
  1034df:	83 7d ec 00          	cmpl   $0x0,-0x14(%ebp)
  1034e3:	75 0a                	jne    1034ef <proc_alloc+0x1e>
		return NULL;
  1034e5:	b8 00 00 00 00       	mov    $0x0,%eax
  1034ea:	e9 b4 01 00 00       	jmp    1036a3 <proc_alloc+0x1d2>
  1034ef:	8b 45 ec             	mov    -0x14(%ebp),%eax
  1034f2:	89 45 f4             	mov    %eax,-0xc(%ebp)

// Atomically increment the reference count on a page.
static gcc_inline void
mem_incref(pageinfo *pi)
{
	assert(pi > &mem_pageinfo[1] && pi < &mem_pageinfo[mem_npage]);
  1034f5:	a1 24 ed 11 00       	mov    0x11ed24,%eax
  1034fa:	83 c0 08             	add    $0x8,%eax
  1034fd:	39 45 f4             	cmp    %eax,-0xc(%ebp)
  103500:	76 15                	jbe    103517 <proc_alloc+0x46>
  103502:	a1 24 ed 11 00       	mov    0x11ed24,%eax
  103507:	8b 15 1c ed 11 00    	mov    0x11ed1c,%edx
  10350d:	c1 e2 03             	shl    $0x3,%edx
  103510:	01 d0                	add    %edx,%eax
  103512:	39 45 f4             	cmp    %eax,-0xc(%ebp)
  103515:	72 24                	jb     10353b <proc_alloc+0x6a>
  103517:	c7 44 24 0c f0 8e 10 	movl   $0x108ef0,0xc(%esp)
  10351e:	00 
  10351f:	c7 44 24 08 c2 8e 10 	movl   $0x108ec2,0x8(%esp)
  103526:	00 
  103527:	c7 44 24 04 58 00 00 	movl   $0x58,0x4(%esp)
  10352e:	00 
  10352f:	c7 04 24 27 8f 10 00 	movl   $0x108f27,(%esp)
  103536:	e8 7d cf ff ff       	call   1004b8 <debug_panic>
	assert(pi != mem_ptr2pi(pmap_zero));	// Don't alloc/free zero page!
  10353b:	a1 24 ed 11 00       	mov    0x11ed24,%eax
  103540:	ba 00 10 12 00       	mov    $0x121000,%edx
  103545:	c1 ea 0c             	shr    $0xc,%edx
  103548:	c1 e2 03             	shl    $0x3,%edx
  10354b:	01 d0                	add    %edx,%eax
  10354d:	39 45 f4             	cmp    %eax,-0xc(%ebp)
  103550:	75 24                	jne    103576 <proc_alloc+0xa5>
  103552:	c7 44 24 0c 34 8f 10 	movl   $0x108f34,0xc(%esp)
  103559:	00 
  10355a:	c7 44 24 08 c2 8e 10 	movl   $0x108ec2,0x8(%esp)
  103561:	00 
  103562:	c7 44 24 04 59 00 00 	movl   $0x59,0x4(%esp)
  103569:	00 
  10356a:	c7 04 24 27 8f 10 00 	movl   $0x108f27,(%esp)
  103571:	e8 42 cf ff ff       	call   1004b8 <debug_panic>
	assert(pi < mem_ptr2pi(start) || pi > mem_ptr2pi(end-1));
  103576:	a1 24 ed 11 00       	mov    0x11ed24,%eax
  10357b:	ba 0c 00 10 00       	mov    $0x10000c,%edx
  103580:	c1 ea 0c             	shr    $0xc,%edx
  103583:	c1 e2 03             	shl    $0x3,%edx
  103586:	01 d0                	add    %edx,%eax
  103588:	39 45 f4             	cmp    %eax,-0xc(%ebp)
  10358b:	72 3b                	jb     1035c8 <proc_alloc+0xf7>
  10358d:	a1 24 ed 11 00       	mov    0x11ed24,%eax
  103592:	ba 07 20 12 00       	mov    $0x122007,%edx
  103597:	c1 ea 0c             	shr    $0xc,%edx
  10359a:	c1 e2 03             	shl    $0x3,%edx
  10359d:	01 d0                	add    %edx,%eax
  10359f:	39 45 f4             	cmp    %eax,-0xc(%ebp)
  1035a2:	77 24                	ja     1035c8 <proc_alloc+0xf7>
  1035a4:	c7 44 24 0c 50 8f 10 	movl   $0x108f50,0xc(%esp)
  1035ab:	00 
  1035ac:	c7 44 24 08 c2 8e 10 	movl   $0x108ec2,0x8(%esp)
  1035b3:	00 
  1035b4:	c7 44 24 04 5a 00 00 	movl   $0x5a,0x4(%esp)
  1035bb:	00 
  1035bc:	c7 04 24 27 8f 10 00 	movl   $0x108f27,(%esp)
  1035c3:	e8 f0 ce ff ff       	call   1004b8 <debug_panic>

	lockadd(&pi->refcount, 1);
  1035c8:	8b 45 f4             	mov    -0xc(%ebp),%eax
  1035cb:	83 c0 04             	add    $0x4,%eax
  1035ce:	c7 44 24 04 01 00 00 	movl   $0x1,0x4(%esp)
  1035d5:	00 
  1035d6:	89 04 24             	mov    %eax,(%esp)
  1035d9:	e8 2c fe ff ff       	call   10340a <lockadd>
	mem_incref(pi);

	proc *cp = (proc*)mem_pi2ptr(pi);
  1035de:	8b 55 ec             	mov    -0x14(%ebp),%edx
  1035e1:	a1 24 ed 11 00       	mov    0x11ed24,%eax
  1035e6:	89 d1                	mov    %edx,%ecx
  1035e8:	29 c1                	sub    %eax,%ecx
  1035ea:	89 c8                	mov    %ecx,%eax
  1035ec:	c1 f8 03             	sar    $0x3,%eax
  1035ef:	c1 e0 0c             	shl    $0xc,%eax
  1035f2:	89 45 f0             	mov    %eax,-0x10(%ebp)
	memset(cp, 0, sizeof(proc));
  1035f5:	c7 44 24 08 b0 06 00 	movl   $0x6b0,0x8(%esp)
  1035fc:	00 
  1035fd:	c7 44 24 04 00 00 00 	movl   $0x0,0x4(%esp)
  103604:	00 
  103605:	8b 45 f0             	mov    -0x10(%ebp),%eax
  103608:	89 04 24             	mov    %eax,(%esp)
  10360b:	e8 54 48 00 00       	call   107e64 <memset>
	spinlock_init(&cp->lock);
  103610:	8b 45 f0             	mov    -0x10(%ebp),%eax
  103613:	c7 44 24 08 36 00 00 	movl   $0x36,0x8(%esp)
  10361a:	00 
  10361b:	c7 44 24 04 e4 8e 10 	movl   $0x108ee4,0x4(%esp)
  103622:	00 
  103623:	89 04 24             	mov    %eax,(%esp)
  103626:	e8 1d f7 ff ff       	call   102d48 <spinlock_init_>
	cp->parent = p;
  10362b:	8b 45 f0             	mov    -0x10(%ebp),%eax
  10362e:	8b 55 08             	mov    0x8(%ebp),%edx
  103631:	89 50 38             	mov    %edx,0x38(%eax)
	cp->state = PROC_STOP;
  103634:	8b 45 f0             	mov    -0x10(%ebp),%eax
  103637:	c7 80 3c 04 00 00 00 	movl   $0x0,0x43c(%eax)
  10363e:	00 00 00 

	// Integer register state
	cp->sv.tf.eflags = (FL_IOPL_MASK & FL_IOPL_3) | FL_IF;
  103641:	8b 45 f0             	mov    -0x10(%ebp),%eax
  103644:	c7 80 90 04 00 00 00 	movl   $0x3200,0x490(%eax)
  10364b:	32 00 00 
	cp->sv.tf.cs = CPU_GDT_UCODE | 3;
  10364e:	8b 45 f0             	mov    -0x10(%ebp),%eax
  103651:	66 c7 80 8c 04 00 00 	movw   $0x1b,0x48c(%eax)
  103658:	1b 00 
	cp->sv.tf.ds = CPU_GDT_UDATA | 3;
  10365a:	8b 45 f0             	mov    -0x10(%ebp),%eax
  10365d:	66 c7 80 7c 04 00 00 	movw   $0x23,0x47c(%eax)
  103664:	23 00 
	cp->sv.tf.es = CPU_GDT_UDATA | 3;
  103666:	8b 45 f0             	mov    -0x10(%ebp),%eax
  103669:	66 c7 80 78 04 00 00 	movw   $0x23,0x478(%eax)
  103670:	23 00 
	cp->sv.tf.cs = CPU_GDT_UCODE | 3;
  103672:	8b 45 f0             	mov    -0x10(%ebp),%eax
  103675:	66 c7 80 8c 04 00 00 	movw   $0x1b,0x48c(%eax)
  10367c:	1b 00 
	cp->sv.tf.ss = CPU_GDT_UDATA | 3;
  10367e:	8b 45 f0             	mov    -0x10(%ebp),%eax
  103681:	66 c7 80 98 04 00 00 	movw   $0x23,0x498(%eax)
  103688:	23 00 


	if (p)
  10368a:	83 7d 08 00          	cmpl   $0x0,0x8(%ebp)
  10368e:	74 10                	je     1036a0 <proc_alloc+0x1cf>
		p->child[cn] = cp;
  103690:	8b 55 0c             	mov    0xc(%ebp),%edx
  103693:	8b 45 08             	mov    0x8(%ebp),%eax
  103696:	8d 4a 0c             	lea    0xc(%edx),%ecx
  103699:	8b 55 f0             	mov    -0x10(%ebp),%edx
  10369c:	89 54 88 0c          	mov    %edx,0xc(%eax,%ecx,4)
	return cp;
  1036a0:	8b 45 f0             	mov    -0x10(%ebp),%eax
}
  1036a3:	c9                   	leave  
  1036a4:	c3                   	ret    

001036a5 <proc_ready>:

// Put process p in the ready state and add it to the ready queue.
void
proc_ready(proc *p)
{
  1036a5:	55                   	push   %ebp
  1036a6:	89 e5                	mov    %esp,%ebp
  1036a8:	83 ec 18             	sub    $0x18,%esp
	// cprintf("proc_ready %p\n", p);
	spinlock_acquire(&proc_lock);
  1036ab:	c7 04 24 00 f4 11 00 	movl   $0x11f400,(%esp)
  1036b2:	e8 c8 f6 ff ff       	call   102d7f <spinlock_acquire>
	if(proc_last) {
  1036b7:	a1 f8 f3 11 00       	mov    0x11f3f8,%eax
  1036bc:	85 c0                	test   %eax,%eax
  1036be:	74 32                	je     1036f2 <proc_ready+0x4d>
		spinlock_acquire(&(proc_last->lock));
  1036c0:	a1 f8 f3 11 00       	mov    0x11f3f8,%eax
  1036c5:	89 04 24             	mov    %eax,(%esp)
  1036c8:	e8 b2 f6 ff ff       	call   102d7f <spinlock_acquire>
		proc_last->readynext = p;
  1036cd:	a1 f8 f3 11 00       	mov    0x11f3f8,%eax
  1036d2:	8b 55 08             	mov    0x8(%ebp),%edx
  1036d5:	89 90 40 04 00 00    	mov    %edx,0x440(%eax)
		spinlock_release(&(proc_last->lock));
  1036db:	a1 f8 f3 11 00       	mov    0x11f3f8,%eax
  1036e0:	89 04 24             	mov    %eax,(%esp)
  1036e3:	e8 0c f7 ff ff       	call   102df4 <spinlock_release>
		proc_last = p;
  1036e8:	8b 45 08             	mov    0x8(%ebp),%eax
  1036eb:	a3 f8 f3 11 00       	mov    %eax,0x11f3f8
  1036f0:	eb 3d                	jmp    10372f <proc_ready+0x8a>
	} else {
		assert(!proc_first);
  1036f2:	a1 f4 f3 11 00       	mov    0x11f3f4,%eax
  1036f7:	85 c0                	test   %eax,%eax
  1036f9:	74 24                	je     10371f <proc_ready+0x7a>
  1036fb:	c7 44 24 0c 81 8f 10 	movl   $0x108f81,0xc(%esp)
  103702:	00 
  103703:	c7 44 24 08 c2 8e 10 	movl   $0x108ec2,0x8(%esp)
  10370a:	00 
  10370b:	c7 44 24 04 54 00 00 	movl   $0x54,0x4(%esp)
  103712:	00 
  103713:	c7 04 24 e4 8e 10 00 	movl   $0x108ee4,(%esp)
  10371a:	e8 99 cd ff ff       	call   1004b8 <debug_panic>
		proc_first = p;
  10371f:	8b 45 08             	mov    0x8(%ebp),%eax
  103722:	a3 f4 f3 11 00       	mov    %eax,0x11f3f4
		proc_last = p;
  103727:	8b 45 08             	mov    0x8(%ebp),%eax
  10372a:	a3 f8 f3 11 00       	mov    %eax,0x11f3f8
	}
	spinlock_acquire(&(p->lock));
  10372f:	8b 45 08             	mov    0x8(%ebp),%eax
  103732:	89 04 24             	mov    %eax,(%esp)
  103735:	e8 45 f6 ff ff       	call   102d7f <spinlock_acquire>
	p->state = PROC_READY;
  10373a:	8b 45 08             	mov    0x8(%ebp),%eax
  10373d:	c7 80 3c 04 00 00 01 	movl   $0x1,0x43c(%eax)
  103744:	00 00 00 
	spinlock_release(&(p->lock));
  103747:	8b 45 08             	mov    0x8(%ebp),%eax
  10374a:	89 04 24             	mov    %eax,(%esp)
  10374d:	e8 a2 f6 ff ff       	call   102df4 <spinlock_release>
	spinlock_release(&proc_lock);
  103752:	c7 04 24 00 f4 11 00 	movl   $0x11f400,(%esp)
  103759:	e8 96 f6 ff ff       	call   102df4 <spinlock_release>
}
  10375e:	c9                   	leave  
  10375f:	c3                   	ret    

00103760 <proc_save>:
//	-1	if we entered the kernel via a trap before executing an insn
//	0	if we entered via a syscall and must abort/rollback the syscall
//	1	if we entered via a syscall and are completing the syscall
void
proc_save(proc *p, trapframe *tf, int entry)
{
  103760:	55                   	push   %ebp
  103761:	89 e5                	mov    %esp,%ebp
  103763:	57                   	push   %edi
  103764:	56                   	push   %esi
  103765:	53                   	push   %ebx
  103766:	83 ec 1c             	sub    $0x1c,%esp
	if(!spinlock_holding(&(p->lock))) panic("not holding p->lock");
  103769:	8b 45 08             	mov    0x8(%ebp),%eax
  10376c:	89 04 24             	mov    %eax,(%esp)
  10376f:	e8 ee f6 ff ff       	call   102e62 <spinlock_holding>
  103774:	85 c0                	test   %eax,%eax
  103776:	75 1c                	jne    103794 <proc_save+0x34>
  103778:	c7 44 24 08 8d 8f 10 	movl   $0x108f8d,0x8(%esp)
  10377f:	00 
  103780:	c7 44 24 04 68 00 00 	movl   $0x68,0x4(%esp)
  103787:	00 
  103788:	c7 04 24 e4 8e 10 00 	movl   $0x108ee4,(%esp)
  10378f:	e8 24 cd ff ff       	call   1004b8 <debug_panic>
	// memcpy(&(p->sv.tf), tf, sizeof(p->sv.tf));
	p->sv.tf = *tf;
  103794:	8b 55 08             	mov    0x8(%ebp),%edx
  103797:	8b 45 0c             	mov    0xc(%ebp),%eax
  10379a:	8d 9a 50 04 00 00    	lea    0x450(%edx),%ebx
  1037a0:	89 c2                	mov    %eax,%edx
  1037a2:	b8 13 00 00 00       	mov    $0x13,%eax
  1037a7:	89 df                	mov    %ebx,%edi
  1037a9:	89 d6                	mov    %edx,%esi
  1037ab:	89 c1                	mov    %eax,%ecx
  1037ad:	f3 a5                	rep movsl %ds:(%esi),%es:(%edi)
	if(entry == 0) p->sv.tf.eip -= 2;
  1037af:	83 7d 10 00          	cmpl   $0x0,0x10(%ebp)
  1037b3:	75 15                	jne    1037ca <proc_save+0x6a>
  1037b5:	8b 45 08             	mov    0x8(%ebp),%eax
  1037b8:	8b 80 88 04 00 00    	mov    0x488(%eax),%eax
  1037be:	8d 50 fe             	lea    -0x2(%eax),%edx
  1037c1:	8b 45 08             	mov    0x8(%ebp),%eax
  1037c4:	89 90 88 04 00 00    	mov    %edx,0x488(%eax)
}
  1037ca:	83 c4 1c             	add    $0x1c,%esp
  1037cd:	5b                   	pop    %ebx
  1037ce:	5e                   	pop    %esi
  1037cf:	5f                   	pop    %edi
  1037d0:	5d                   	pop    %ebp
  1037d1:	c3                   	ret    

001037d2 <proc_wait>:
// Go to sleep waiting for a given child process to finish running.
// Parent process 'p' must be running and locked on entry.
// The supplied trapframe represents p's register state on syscall entry.
void gcc_noreturn
proc_wait(proc *p, proc *cp, trapframe *tf)
{
  1037d2:	55                   	push   %ebp
  1037d3:	89 e5                	mov    %esp,%ebp
  1037d5:	83 ec 18             	sub    $0x18,%esp
	cprintf("proc_wait parent=%p child=%p\n", p, cp);
  1037d8:	8b 45 0c             	mov    0xc(%ebp),%eax
  1037db:	89 44 24 08          	mov    %eax,0x8(%esp)
  1037df:	8b 45 08             	mov    0x8(%ebp),%eax
  1037e2:	89 44 24 04          	mov    %eax,0x4(%esp)
  1037e6:	c7 04 24 a1 8f 10 00 	movl   $0x108fa1,(%esp)
  1037ed:	e8 8b 44 00 00       	call   107c7d <cprintf>
	p->state = PROC_WAIT;
  1037f2:	8b 45 08             	mov    0x8(%ebp),%eax
  1037f5:	c7 80 3c 04 00 00 03 	movl   $0x3,0x43c(%eax)
  1037fc:	00 00 00 
	p->waitchild = cp;
  1037ff:	8b 45 08             	mov    0x8(%ebp),%eax
  103802:	8b 55 0c             	mov    0xc(%ebp),%edx
  103805:	89 90 48 04 00 00    	mov    %edx,0x448(%eax)
	proc_save(p, tf, 0);
  10380b:	c7 44 24 08 00 00 00 	movl   $0x0,0x8(%esp)
  103812:	00 
  103813:	8b 45 10             	mov    0x10(%ebp),%eax
  103816:	89 44 24 04          	mov    %eax,0x4(%esp)
  10381a:	8b 45 08             	mov    0x8(%ebp),%eax
  10381d:	89 04 24             	mov    %eax,(%esp)
  103820:	e8 3b ff ff ff       	call   103760 <proc_save>
	spinlock_release(&(p->lock));
  103825:	8b 45 08             	mov    0x8(%ebp),%eax
  103828:	89 04 24             	mov    %eax,(%esp)
  10382b:	e8 c4 f5 ff ff       	call   102df4 <spinlock_release>
	proc_sched();
  103830:	e8 00 00 00 00       	call   103835 <proc_sched>

00103835 <proc_sched>:
}

void gcc_noreturn
proc_sched(void)
{
  103835:	55                   	push   %ebp
  103836:	89 e5                	mov    %esp,%ebp
  103838:	83 ec 28             	sub    $0x28,%esp
	proc *p;
	do {
		spinlock_acquire(&proc_lock);
  10383b:	c7 04 24 00 f4 11 00 	movl   $0x11f400,(%esp)
  103842:	e8 38 f5 ff ff       	call   102d7f <spinlock_acquire>
		if(proc_first) break;
  103847:	a1 f4 f3 11 00       	mov    0x11f3f4,%eax
  10384c:	85 c0                	test   %eax,%eax
  10384e:	74 2c                	je     10387c <proc_sched+0x47>
		spinlock_release(&proc_lock);
		while(!proc_first) pause();
	} while(1);
	p = proc_first;
  103850:	a1 f4 f3 11 00       	mov    0x11f3f4,%eax
  103855:	89 45 f4             	mov    %eax,-0xc(%ebp)
	spinlock_acquire(&(p->lock));
  103858:	8b 45 f4             	mov    -0xc(%ebp),%eax
  10385b:	89 04 24             	mov    %eax,(%esp)
  10385e:	e8 1c f5 ff ff       	call   102d7f <spinlock_acquire>
	proc_first = p->readynext;
  103863:	8b 45 f4             	mov    -0xc(%ebp),%eax
  103866:	8b 80 40 04 00 00    	mov    0x440(%eax),%eax
  10386c:	a3 f4 f3 11 00       	mov    %eax,0x11f3f4
	if(proc_first == NULL) proc_last = NULL;
  103871:	a1 f4 f3 11 00       	mov    0x11f3f4,%eax
  103876:	85 c0                	test   %eax,%eax
  103878:	74 20                	je     10389a <proc_sched+0x65>
  10387a:	eb 28                	jmp    1038a4 <proc_sched+0x6f>
{
	proc *p;
	do {
		spinlock_acquire(&proc_lock);
		if(proc_first) break;
		spinlock_release(&proc_lock);
  10387c:	c7 04 24 00 f4 11 00 	movl   $0x11f400,(%esp)
  103883:	e8 6c f5 ff ff       	call   102df4 <spinlock_release>
		while(!proc_first) pause();
  103888:	eb 05                	jmp    10388f <proc_sched+0x5a>
  10388a:	e8 8c fb ff ff       	call   10341b <pause>
  10388f:	a1 f4 f3 11 00       	mov    0x11f3f4,%eax
  103894:	85 c0                	test   %eax,%eax
  103896:	74 f2                	je     10388a <proc_sched+0x55>
	} while(1);
  103898:	eb a1                	jmp    10383b <proc_sched+0x6>
	p = proc_first;
	spinlock_acquire(&(p->lock));
	proc_first = p->readynext;
	if(proc_first == NULL) proc_last = NULL;
  10389a:	c7 05 f8 f3 11 00 00 	movl   $0x0,0x11f3f8
  1038a1:	00 00 00 
	spinlock_release(&proc_lock);
  1038a4:	c7 04 24 00 f4 11 00 	movl   $0x11f400,(%esp)
  1038ab:	e8 44 f5 ff ff       	call   102df4 <spinlock_release>
	p->readynext = NULL;
  1038b0:	8b 45 f4             	mov    -0xc(%ebp),%eax
  1038b3:	c7 80 40 04 00 00 00 	movl   $0x0,0x440(%eax)
  1038ba:	00 00 00 
	proc_run(p);
  1038bd:	8b 45 f4             	mov    -0xc(%ebp),%eax
  1038c0:	89 04 24             	mov    %eax,(%esp)
  1038c3:	e8 00 00 00 00       	call   1038c8 <proc_run>

001038c8 <proc_run>:
}

// Switch to and run a specified process, which must already be locked.
void gcc_noreturn
proc_run(proc *p)
